(dp0
S'pre'
p1
(dp2
I1
I20
sI2
I4
sI3
I2
sI4
I9
sI5
I12
sI6
I5
sI7
I8
sI8
I10
sI9
I11
sI10
I11
sI11
I20
sI12
I10
sI13
I9
sI14
I18
sI15
I1
sI16
I17
sI17
I20
sI18
I20
sI19
I17
ssS'dist'
p3
(dp4
I1
I1
sI2
I4
sI3
I5
sI4
I3
sI5
I4
sI6
I5
sI7
I4
sI8
I3
sI9
I2
sI10
I2
sI11
I1
sI12
I3
sI13
I3
sI14
I2
sI15
I2
sI16
I2
sI17
I1
sI18
I1
sI19
I2
sI20
I0
ss.