(dp0
S'pre'
p1
(dp2
I1
I20
sI3
I2
sI4
I2
sI5
I3
sI6
I3
sI7
I2
sI8
I4
sI9
I4
sI10
I8
sI11
I9
sI12
I5
sI13
I9
sI14
I12
sI15
I13
sI16
I14
sI17
I19
sI18
I20
sI19
I13
sI20
I11
ssS'dist'
p3
(dp4
I1
I5
sI2
I0
sI3
I1
sI4
I1
sI5
I2
sI6
I2
sI7
I1
sI8
I2
sI9
I2
sI10
I3
sI11
I3
sI12
I3
sI13
I3
sI14
I4
sI15
I4
sI16
I5
sI17
I5
sI18
I5
sI19
I4
sI20
I4
ss.