(dp0
I1
(dp1
I18
I1
sI20
I1
sI15
I1
ssI2
(dp2
I3
I1
sI4
I1
sI7
I1
ssI3
(dp3
I2
I1
sI5
I1
sI6
I1
ssI4
(dp4
I8
I1
sI9
I1
sI2
I1
ssI5
(dp5
I3
I1
sI12
I1
sI6
I1
ssI6
(dp6
I3
I1
sI5
I1
sI7
I1
ssI7
(dp7
I8
I1
sI2
I1
sI6
I1
ssI8
(dp8
I10
I1
sI4
I1
sI7
I1
ssI9
(dp9
I10
I1
sI11
I1
sI4
I1
sI13
I1
ssI10
(dp10
I8
I1
sI9
I1
sI11
I1
sI12
I1
ssI11
(dp11
I9
I1
sI10
I1
sI20
I1
ssI12
(dp12
I10
I1
sI5
I1
sI14
I1
ssI13
(dp13
I9
I1
sI19
I1
sI15
I1
ssI14
(dp14
I16
I1
sI18
I1
sI12
I1
ssI15
(dp15
I16
I1
sI1
I1
sI19
I1
sI13
I1
ssI16
(dp16
I17
I1
sI14
I1
sI15
I1
ssI17
(dp17
I16
I1
sI19
I1
sI20
I1
ssI18
(dp18
I1
I1
sI20
I1
sI14
I1
ssI19
(dp19
I17
I1
sI13
I1
sI15
I1
ssI20
(dp20
I1
I1
sI18
I1
sI11
I1
sI17
I1
ss.