(dp0
I1
(dp1
I1
I18
ssI2
(dp2
I1
I20
ssI3
(dp3
I1
I15
ssI4
(dp4
I2
I3
ssI5
(dp5
I2
I4
ssI6
(dp6
I2
I7
ssI7
(dp7
I3
I5
ssI8
(dp8
I3
I6
ssI9
(dp9
I4
I8
ssI10
(dp10
I4
I9
ssI11
(dp11
I5
I12
ssI12
(dp12
I5
I6
ssI13
(dp13
I6
I7
ssI14
(dp14
I7
I8
ssI15
(dp15
I8
I10
ssI16
(dp16
I9
I10
ssI17
(dp17
I9
I11
ssI18
(dp18
I9
I13
ssI19
(dp19
I10
I11
ssI20
(dp20
I10
I12
ssI21
(dp21
I11
I20
ssI22
(dp22
I12
I14
ssI23
(dp23
I13
I19
ssI24
(dp24
I13
I15
ssI25
(dp25
I14
I16
ssI26
(dp26
I14
I18
ssI27
(dp27
I15
I16
ssI28
(dp28
I15
I19
ssI29
(dp29
I16
I17
ssI30
(dp30
I17
I19
ssI31
(dp31
I17
I20
ssI32
(dp32
I18
I20
ss.