(dp0
I1
(dp1
I1
(dp2
I2
I1
sI3
I2
sI4
I3
sI5
I4
sI6
I5
ssI2
(dp3
I2
I3
sI3
I4
sI4
I5
sI5
I6
sI6
I1
ssI3
(dp4
I5
I1
sssI2
(dp5
I1
(dp6
I1
I2
sI3
I4
sI4
I5
sI5
I6
sI6
I1
ssI2
(dp7
I1
I6
sI3
I2
sI4
I3
sI5
I4
sI6
I5
ssI3
(dp8
I4
I2
sssI3
(dp9
I1
(dp10
I1
I2
sI2
I3
sI4
I5
sI5
I6
sI6
I1
ssI2
(dp11
I1
I6
sI2
I4
sI4
I3
sI5
I4
sI6
I5
sssI4
(dp12
I1
(dp13
I1
I6
sI2
I1
sI3
I2
sI5
I4
sI6
I5
ssI2
(dp14
I1
I2
sI2
I3
sI3
I4
sI5
I6
sI6
I1
ssI3
(dp15
I2
I4
sssI5
(dp16
I1
(dp17
I1
I2
sI2
I3
sI3
I4
sI4
I5
sI6
I1
ssI2
(dp18
I1
I6
sI2
I1
sI3
I2
sI4
I2
sI6
I5
ssI3
(dp19
I1
I5
sssI6
(dp20
I1
(dp21
I1
I2
sI2
I3
sI3
I4
sI4
I5
sI5
I6
ssI2
(dp22
I1
I6
sI2
I1
sI3
I2
sI4
I2
sI5
I1
sss.