(dp0
I1
(dp1
I1
(dp2
I2
I4
sI3
I1
sI4
I5
sI5
I6
sI6
I3
ssI2
(dp3
I3
I6
sI4
I7
sI5
I1
sI6
I1
sI7
I6
ssI3
(dp4
I2
I1
sI4
I2
sI5
I4
sI6
I5
ssI4
(dp5
I4
I1
sI6
I7
sI7
I4
sssI2
(dp6
I1
(dp7
I1
I5
sI3
I6
sI4
I2
sI5
I4
sI6
I7
sI7
I4
ssI2
(dp8
I1
I2
sI3
I1
sI4
I7
sI5
I1
sI6
I5
sI7
I6
sssI3
(dp9
I1
(dp10
I1
I5
sI2
I4
sI4
I7
sI5
I6
sI6
I3
sI7
I6
ssI2
(dp11
I1
I3
sI2
I1
sI4
I5
sI5
I1
sI6
I1
sI7
I4
sssI4
(dp12
I1
(dp13
I1
I3
sI2
I1
sI3
I6
sI5
I4
sI6
I5
sI7
I6
ssI2
(dp14
I1
I6
sI5
I1
sI6
I7
sI7
I4
ssI3
(dp15
I1
I2
sI2
I4
sI3
I1
sI5
I6
sI6
I3
ssI4
(dp16
I1
I4
sI6
I1
sssI5
(dp17
I1
(dp18
I1
I3
sI3
I6
sI4
I7
sI6
I5
sI7
I6
ssI2
(dp19
I1
I2
sI2
I4
sI3
I1
sI4
I5
sI6
I3
sI7
I4
ssI3
(dp20
I1
I5
sI2
I1
sI4
I2
sI6
I1
sssI6
(dp21
I1
(dp22
I1
I2
sI2
I4
sI3
I1
sI4
I5
sI5
I6
sI7
I4
ssI2
(dp23
I1
I4
sI4
I7
sI5
I1
sI7
I6
ssI3
(dp24
I1
I3
sI2
I1
sI3
I6
sI4
I2
sI5
I4
ssI4
(dp25
I1
I6
sI4
I1
sssI7
(dp26
I1
(dp27
I1
I3
sI2
I4
sI3
I6
sI4
I5
sI5
I6
sI6
I7
ssI2
(dp28
I1
I5
sI2
I1
sI3
I1
sI4
I7
sI5
I4
sI6
I1
sss.