(dp0
I1
(dp1
I1
(dp2
I2
I4
sI3
I1
sI4
I7
sI5
I4
sI6
I3
sI7
I6
ssI2
(dp3
I8
I6
sI3
I6
sI4
I8
sI5
I6
sI6
I1
ssI3
(dp4
I4
I5
sI5
I1
sI6
I5
ssI4
(dp5
I2
I1
sI4
I2
sI6
I7
sI7
I4
ssI5
(dp6
I8
I4
sI4
I1
sI6
I8
sssI2
(dp7
I1
(dp8
I1
I5
sI3
I6
sI4
I2
sI5
I4
sI6
I7
sI7
I4
sI8
I4
ssI2
(dp9
I1
I2
sI3
I1
sI4
I7
sI5
I6
sI6
I1
sI7
I6
sI8
I6
sssI3
(dp10
I1
(dp11
I1
I5
sI2
I4
sI4
I7
sI5
I4
sI6
I3
sI7
I6
sI8
I4
ssI2
(dp12
I1
I3
sI2
I1
sI4
I8
sI5
I6
sI6
I1
sI7
I4
sI8
I6
sssI4
(dp13
I1
(dp14
I1
I5
sI2
I1
sI5
I4
sI6
I5
sI7
I6
sI8
I6
ssI2
(dp15
I1
I3
sI3
I6
sI5
I1
sI6
I7
sI7
I4
ssI3
(dp16
I8
I4
sI1
I6
sI5
I6
sI6
I8
ssI4
(dp17
I1
I2
sI2
I4
sI3
I1
sI6
I3
ssI5
(dp18
I1
I4
sI6
I1
sssI5
(dp19
I1
(dp20
I1
I3
sI2
I1
sI3
I6
sI4
I7
sI6
I5
sI7
I6
sI8
I4
ssI2
(dp21
I1
I6
sI2
I4
sI4
I5
sI6
I7
sI7
I4
ssI3
(dp22
I8
I6
sI1
I5
sI3
I1
sI4
I8
sI6
I3
sssI6
(dp23
I1
(dp24
I1
I2
sI2
I4
sI3
I1
sI4
I7
sI5
I1
sI7
I6
sI8
I4
ssI2
(dp25
I8
I6
sI1
I4
sI4
I8
sI5
I4
sI7
I4
ssI3
(dp26
I1
I5
sI4
I5
sI5
I6
ssI4
(dp27
I1
I3
sI2
I1
sI3
I6
sI4
I2
ssI5
(dp28
I1
I6
sI4
I1
sssI7
(dp29
I1
(dp30
I1
I5
sI2
I4
sI3
I6
sI4
I8
sI5
I6
sI6
I7
sI8
I6
ssI2
(dp31
I1
I6
sI2
I1
sI3
I1
sI4
I7
sI5
I1
sI6
I8
sI8
I4
sssI8
(dp32
I1
(dp33
I1
I3
sI2
I4
sI3
I6
sI4
I7
sI5
I6
sI6
I8
sI7
I6
ssI2
(dp34
I1
I5
sI2
I1
sI3
I1
sI4
I8
sI5
I4
sI6
I1
sI7
I4
sss.