(dp0
I1
(dp1
I1
(dp2
I2
I3
sI3
I5
sI4
I2
sI5
I12
sI6
I3
sI7
I2
sI8
I4
sI9
I4
sI10
I12
sI11
I9
sI12
I14
sI13
I9
sI14
I18
sI15
I19
sI16
I17
sI17
I20
sI18
I1
sI19
I13
sI20
I18
ssI2
(dp3
I2
I7
sI3
I6
sI4
I8
sI5
I6
sI6
I7
sI7
I8
sI8
I10
sI9
I11
sI10
I11
sI11
I20
sI12
I5
sI13
I19
sI14
I12
sI15
I16
sI16
I14
sI17
I19
sI18
I14
sI19
I15
sI20
I1
ssI3
(dp4
I2
I4
sI3
I2
sI4
I9
sI5
I3
sI6
I5
sI7
I6
sI8
I7
sI9
I13
sI10
I8
sI11
I10
sI12
I10
sI13
I15
sI14
I16
sI15
I1
sI16
I15
sI17
I16
sI18
I20
sI19
I17
sI20
I17
sssI2
(dp5
I1
(dp6
I1
I20
sI3
I6
sI4
I8
sI5
I6
sI6
I7
sI7
I2
sI8
I7
sI9
I11
sI10
I8
sI11
I10
sI12
I10
sI13
I19
sI14
I16
sI15
I1
sI16
I15
sI17
I19
sI18
I20
sI19
I15
sI20
I11
ssI2
(dp7
I1
I18
sI3
I2
sI4
I9
sI5
I3
sI6
I3
sI7
I8
sI8
I4
sI9
I10
sI10
I12
sI11
I20
sI12
I5
sI13
I15
sI14
I12
sI15
I16
sI16
I17
sI17
I20
sI18
I14
sI19
I17
sI20
I18
ssI3
(dp8
I1
I15
sI3
I5
sI4
I2
sI5
I12
sI6
I5
sI7
I6
sI8
I10
sI9
I4
sI10
I11
sI11
I9
sI12
I14
sI13
I9
sI14
I18
sI15
I19
sI16
I14
sI17
I16
sI18
I1
sI19
I13
sI20
I1
sssI3
(dp9
I1
(dp10
I1
I20
sI2
I3
sI4
I2
sI5
I12
sI6
I7
sI7
I2
sI8
I10
sI9
I4
sI10
I11
sI11
I9
sI12
I14
sI13
I19
sI14
I18
sI15
I1
sI16
I17
sI17
I19
sI18
I1
sI19
I15
sI20
I11
ssI2
(dp11
I1
I18
sI2
I7
sI4
I8
sI5
I6
sI6
I3
sI7
I6
sI8
I7
sI9
I11
sI10
I8
sI11
I20
sI12
I10
sI13
I15
sI14
I12
sI15
I16
sI16
I14
sI17
I16
sI18
I20
sI19
I17
sI20
I17
ssI3
(dp12
I1
I15
sI2
I4
sI4
I9
sI5
I3
sI6
I5
sI7
I8
sI8
I4
sI9
I10
sI10
I12
sI11
I10
sI12
I5
sI13
I9
sI14
I16
sI15
I19
sI16
I15
sI17
I20
sI18
I14
sI19
I13
sI20
I18
sssI4
(dp13
I1
(dp14
I1
I20
sI2
I7
sI3
I6
sI5
I6
sI6
I7
sI7
I8
sI8
I4
sI9
I11
sI10
I8
sI11
I10
sI12
I10
sI13
I19
sI14
I16
sI15
I1
sI16
I15
sI17
I19
sI18
I20
sI19
I15
sI20
I11
ssI2
(dp15
I1
I18
sI2
I4
sI3
I2
sI5
I3
sI6
I3
sI7
I2
sI8
I10
sI9
I10
sI10
I12
sI11
I20
sI12
I5
sI13
I15
sI14
I12
sI15
I16
sI16
I17
sI17
I20
sI18
I14
sI19
I17
sI20
I18
ssI3
(dp16
I1
I15
sI2
I3
sI3
I5
sI5
I12
sI6
I5
sI7
I6
sI8
I7
sI9
I4
sI10
I11
sI11
I9
sI12
I14
sI13
I9
sI14
I18
sI15
I19
sI16
I14
sI17
I16
sI18
I1
sI19
I13
sI20
I1
sssI5
(dp17
I1
(dp18
I1
I20
sI2
I3
sI3
I5
sI4
I2
sI6
I7
sI7
I2
sI8
I10
sI9
I4
sI10
I11
sI11
I9
sI12
I14
sI13
I19
sI14
I18
sI15
I1
sI16
I17
sI17
I19
sI18
I1
sI19
I15
sI20
I11
ssI2
(dp19
I1
I18
sI2
I7
sI3
I6
sI4
I8
sI6
I5
sI7
I6
sI8
I7
sI9
I11
sI10
I8
sI11
I20
sI12
I10
sI13
I15
sI14
I12
sI15
I16
sI16
I14
sI17
I16
sI18
I20
sI19
I17
sI20
I17
ssI3
(dp20
I1
I15
sI2
I4
sI3
I2
sI4
I9
sI6
I3
sI7
I8
sI8
I4
sI9
I10
sI10
I12
sI11
I10
sI12
I5
sI13
I9
sI14
I16
sI15
I19
sI16
I15
sI17
I20
sI18
I14
sI19
I13
sI20
I18
sssI6
(dp21
I1
(dp22
I1
I20
sI2
I3
sI3
I6
sI4
I2
sI5
I12
sI7
I2
sI8
I4
sI9
I4
sI10
I11
sI11
I9
sI12
I14
sI13
I19
sI14
I18
sI15
I1
sI16
I17
sI17
I19
sI18
I1
sI19
I15
sI20
I11
ssI2
(dp23
I1
I18
sI2
I7
sI3
I5
sI4
I8
sI5
I6
sI7
I8
sI8
I10
sI9
I10
sI10
I12
sI11
I10
sI12
I5
sI13
I9
sI14
I16
sI15
I19
sI16
I15
sI17
I16
sI18
I20
sI19
I13
sI20
I17
ssI3
(dp24
I1
I15
sI2
I4
sI3
I2
sI4
I9
sI5
I3
sI7
I6
sI8
I7
sI9
I11
sI10
I8
sI11
I20
sI12
I10
sI13
I15
sI14
I12
sI15
I16
sI16
I14
sI17
I20
sI18
I14
sI19
I17
sI20
I18
sssI7
(dp25
I1
(dp26
I1
I20
sI2
I7
sI3
I5
sI4
I2
sI5
I12
sI6
I3
sI8
I4
sI9
I4
sI10
I11
sI11
I9
sI12
I14
sI13
I19
sI14
I18
sI15
I1
sI16
I17
sI17
I19
sI18
I1
sI19
I15
sI20
I11
ssI2
(dp27
I1
I18
sI2
I3
sI3
I6
sI4
I8
sI5
I6
sI6
I7
sI8
I10
sI9
I10
sI10
I12
sI11
I10
sI12
I5
sI13
I9
sI14
I16
sI15
I19
sI16
I15
sI17
I16
sI18
I20
sI19
I13
sI20
I17
ssI3
(dp28
I1
I15
sI2
I4
sI3
I2
sI4
I9
sI5
I3
sI6
I5
sI8
I7
sI9
I11
sI10
I8
sI11
I20
sI12
I10
sI13
I15
sI14
I12
sI15
I16
sI16
I14
sI17
I20
sI18
I14
sI19
I17
sI20
I18
sssI8
(dp29
I1
(dp30
I1
I20
sI2
I4
sI3
I6
sI4
I8
sI5
I6
sI6
I7
sI7
I2
sI9
I10
sI10
I12
sI11
I10
sI12
I5
sI13
I19
sI14
I18
sI15
I1
sI16
I17
sI17
I19
sI18
I1
sI19
I15
sI20
I11
ssI2
(dp31
I1
I18
sI2
I7
sI3
I2
sI4
I2
sI5
I3
sI6
I3
sI7
I8
sI9
I4
sI10
I11
sI11
I9
sI12
I14
sI13
I9
sI14
I16
sI15
I19
sI16
I15
sI17
I16
sI18
I20
sI19
I13
sI20
I17
ssI3
(dp32
I1
I15
sI2
I3
sI3
I5
sI4
I9
sI5
I12
sI6
I5
sI7
I6
sI9
I11
sI10
I8
sI11
I20
sI12
I10
sI13
I15
sI14
I12
sI15
I16
sI16
I14
sI17
I20
sI18
I14
sI19
I17
sI20
I18
sssI9
(dp33
I1
(dp34
I1
I18
sI2
I3
sI3
I5
sI4
I2
sI5
I12
sI6
I5
sI7
I6
sI8
I7
sI10
I8
sI11
I20
sI12
I14
sI13
I9
sI14
I16
sI15
I19
sI16
I15
sI17
I16
sI18
I20
sI19
I13
sI20
I17
ssI2
(dp35
I1
I20
sI2
I7
sI3
I6
sI4
I9
sI5
I6
sI6
I7
sI7
I8
sI8
I4
sI10
I12
sI11
I10
sI12
I5
sI13
I19
sI14
I18
sI15
I1
sI16
I17
sI17
I19
sI18
I1
sI19
I15
sI20
I11
ssI3
(dp36
I1
I15
sI2
I4
sI3
I2
sI4
I8
sI5
I3
sI6
I3
sI7
I2
sI8
I10
sI10
I11
sI11
I9
sI12
I10
sI13
I15
sI14
I12
sI15
I16
sI16
I14
sI17
I20
sI18
I14
sI19
I17
sI20
I18
ssI4
(dp37
I10
I9
sssI10
(dp38
I1
(dp39
I1
I20
sI2
I3
sI3
I5
sI4
I2
sI5
I12
sI6
I3
sI7
I2
sI8
I7
sI9
I11
sI11
I10
sI12
I14
sI13
I19
sI14
I18
sI15
I1
sI16
I17
sI17
I19
sI18
I1
sI19
I15
sI20
I11
ssI2
(dp40
I1
I18
sI2
I7
sI3
I6
sI4
I9
sI5
I6
sI6
I7
sI7
I8
sI8
I4
sI9
I13
sI11
I20
sI12
I10
sI13
I15
sI14
I12
sI15
I16
sI16
I14
sI17
I16
sI18
I20
sI19
I17
sI20
I17
ssI3
(dp41
I1
I15
sI2
I4
sI3
I2
sI4
I8
sI5
I3
sI6
I5
sI7
I6
sI8
I10
sI9
I4
sI11
I9
sI12
I5
sI13
I9
sI14
I16
sI15
I19
sI16
I15
sI17
I20
sI18
I14
sI19
I13
sI20
I18
ssI4
(dp42
I9
I10
sssI11
(dp43
I1
(dp44
I1
I18
sI2
I7
sI3
I6
sI4
I8
sI5
I6
sI6
I7
sI7
I8
sI8
I10
sI9
I11
sI10
I9
sI12
I14
sI13
I9
sI14
I16
sI15
I19
sI16
I15
sI17
I16
sI18
I20
sI19
I13
sI20
I17
ssI2
(dp45
I1
I15
sI2
I3
sI3
I5
sI4
I2
sI5
I12
sI6
I3
sI7
I2
sI8
I4
sI9
I4
sI10
I11
sI12
I10
sI13
I19
sI14
I12
sI15
I16
sI16
I17
sI17
I20
sI18
I14
sI19
I17
sI20
I18
ssI3
(dp46
I1
I20
sI2
I4
sI3
I2
sI4
I9
sI5
I3
sI6
I5
sI7
I6
sI8
I7
sI9
I13
sI10
I12
sI12
I5
sI13
I15
sI14
I18
sI15
I1
sI16
I14
sI17
I19
sI18
I1
sI19
I15
sI20
I11
sssI12
(dp47
I1
(dp48
I1
I18
sI2
I3
sI3
I5
sI4
I2
sI5
I12
sI6
I3
sI7
I2
sI8
I4
sI9
I4
sI10
I8
sI11
I20
sI13
I9
sI14
I16
sI15
I19
sI16
I15
sI17
I16
sI18
I20
sI19
I13
sI20
I17
ssI2
(dp49
I1
I20
sI2
I7
sI3
I6
sI4
I8
sI5
I6
sI6
I7
sI7
I8
sI8
I10
sI9
I11
sI10
I12
sI11
I10
sI13
I19
sI14
I18
sI15
I1
sI16
I17
sI17
I19
sI18
I1
sI19
I15
sI20
I11
ssI3
(dp50
I1
I15
sI2
I4
sI3
I2
sI4
I9
sI5
I3
sI6
I5
sI7
I6
sI8
I7
sI9
I13
sI10
I11
sI11
I9
sI13
I15
sI14
I12
sI15
I16
sI16
I14
sI17
I20
sI18
I14
sI19
I17
sI20
I18
sssI13
(dp51
I1
(dp52
I1
I20
sI2
I7
sI3
I6
sI4
I8
sI5
I6
sI6
I7
sI7
I8
sI8
I10
sI9
I13
sI10
I11
sI11
I9
sI12
I5
sI14
I18
sI15
I1
sI16
I17
sI17
I20
sI18
I1
sI19
I17
sI20
I11
ssI2
(dp53
I1
I18
sI2
I3
sI3
I5
sI4
I2
sI5
I12
sI6
I3
sI7
I2
sI8
I4
sI9
I4
sI10
I12
sI11
I10
sI12
I14
sI14
I16
sI15
I19
sI16
I15
sI17
I16
sI18
I20
sI19
I13
sI20
I17
ssI3
(dp54
I1
I15
sI2
I4
sI3
I2
sI4
I9
sI5
I3
sI6
I5
sI7
I6
sI8
I7
sI9
I11
sI10
I8
sI11
I20
sI12
I10
sI14
I12
sI15
I13
sI16
I14
sI17
I19
sI18
I14
sI19
I15
sI20
I1
sssI14
(dp55
I1
(dp56
I1
I20
sI2
I3
sI3
I5
sI4
I2
sI5
I12
sI6
I3
sI7
I2
sI8
I4
sI9
I10
sI10
I12
sI11
I10
sI12
I14
sI13
I9
sI15
I19
sI16
I15
sI17
I19
sI18
I1
sI19
I13
sI20
I11
ssI2
(dp57
I1
I15
sI2
I7
sI3
I6
sI4
I8
sI5
I6
sI6
I7
sI7
I8
sI8
I10
sI9
I11
sI10
I11
sI11
I20
sI12
I5
sI13
I19
sI15
I16
sI16
I17
sI17
I20
sI18
I14
sI19
I17
sI20
I18
ssI3
(dp58
I1
I18
sI2
I4
sI3
I2
sI4
I9
sI5
I3
sI6
I5
sI7
I6
sI8
I7
sI9
I13
sI10
I8
sI11
I9
sI12
I10
sI13
I15
sI15
I1
sI16
I14
sI17
I16
sI18
I20
sI19
I15
sI20
I17
sssI15
(dp59
I1
(dp60
I1
I15
sI2
I3
sI3
I5
sI4
I2
sI5
I12
sI6
I3
sI7
I2
sI8
I7
sI9
I4
sI10
I12
sI11
I10
sI12
I14
sI13
I9
sI14
I18
sI16
I14
sI17
I20
sI18
I1
sI19
I13
sI20
I1
ssI2
(dp61
I1
I18
sI2
I7
sI3
I6
sI4
I9
sI5
I6
sI6
I7
sI7
I8
sI8
I4
sI9
I13
sI10
I11
sI11
I9
sI12
I5
sI13
I15
sI14
I12
sI18
I20
sI20
I11
ssI3
(dp62
I1
I20
sI2
I4
sI3
I2
sI4
I8
sI5
I3
sI6
I5
sI7
I6
sI8
I10
sI9
I11
sI10
I9
sI11
I20
sI12
I10
sI13
I19
sI14
I16
sI16
I17
sI17
I19
sI18
I14
sI19
I15
sI20
I18
ssI4
(dp63
I16
I15
sI17
I16
sI19
I17
sI20
I17
sssI16
(dp64
I1
(dp65
I1
I20
sI2
I3
sI3
I5
sI4
I2
sI5
I12
sI6
I3
sI7
I2
sI8
I4
sI9
I10
sI10
I12
sI11
I10
sI12
I14
sI13
I9
sI14
I16
sI15
I19
sI17
I20
sI18
I14
sI19
I13
sI20
I18
ssI2
(dp66
I1
I15
sI2
I7
sI3
I6
sI4
I8
sI5
I6
sI6
I7
sI7
I8
sI8
I10
sI9
I11
sI10
I11
sI11
I20
sI12
I5
sI13
I19
sI14
I18
sI15
I16
sI17
I19
sI18
I1
sI19
I15
sI20
I1
ssI3
(dp67
I1
I18
sI2
I4
sI3
I2
sI4
I9
sI5
I3
sI6
I5
sI7
I6
sI8
I7
sI9
I13
sI10
I8
sI11
I9
sI12
I10
sI13
I15
sI14
I12
sI15
I1
sI17
I16
sI18
I20
sI19
I17
sI20
I17
sssI17
(dp68
I1
(dp69
I1
I20
sI2
I3
sI3
I5
sI4
I2
sI5
I12
sI6
I3
sI7
I2
sI8
I4
sI9
I10
sI10
I12
sI11
I10
sI12
I14
sI13
I9
sI14
I16
sI15
I19
sI16
I17
sI18
I14
sI19
I13
sI20
I11
ssI2
(dp70
I1
I15
sI2
I7
sI3
I6
sI4
I8
sI5
I6
sI6
I7
sI7
I8
sI8
I10
sI9
I11
sI10
I11
sI11
I20
sI12
I5
sI13
I19
sI14
I18
sI15
I13
sI16
I14
sI18
I1
sI19
I17
sI20
I1
ssI3
(dp71
I1
I18
sI2
I4
sI3
I2
sI4
I9
sI5
I3
sI6
I5
sI7
I6
sI8
I7
sI9
I13
sI10
I8
sI11
I9
sI12
I10
sI13
I15
sI14
I12
sI15
I1
sI16
I15
sI18
I20
sI19
I15
sI20
I17
sssI18
(dp72
I1
(dp73
I1
I20
sI2
I3
sI3
I5
sI4
I2
sI5
I12
sI6
I3
sI7
I2
sI8
I4
sI9
I10
sI10
I12
sI11
I10
sI12
I14
sI13
I9
sI14
I18
sI15
I19
sI16
I14
sI17
I19
sI19
I13
sI20
I11
ssI2
(dp74
I1
I15
sI2
I7
sI3
I6
sI4
I8
sI5
I6
sI6
I7
sI7
I8
sI8
I10
sI9
I11
sI10
I11
sI11
I20
sI12
I5
sI13
I19
sI14
I12
sI15
I13
sI16
I17
sI17
I20
sI19
I17
sI20
I18
ssI3
(dp75
I1
I18
sI2
I4
sI3
I2
sI4
I9
sI5
I3
sI6
I5
sI7
I6
sI8
I7
sI9
I13
sI10
I8
sI11
I9
sI12
I10
sI13
I15
sI14
I16
sI15
I1
sI16
I15
sI17
I16
sI19
I15
sI20
I1
sssI19
(dp76
I1
(dp77
I1
I20
sI2
I3
sI3
I5
sI4
I2
sI5
I12
sI6
I3
sI7
I2
sI8
I4
sI9
I10
sI10
I12
sI11
I10
sI12
I14
sI13
I9
sI14
I16
sI15
I19
sI16
I15
sI17
I16
sI18
I14
sI20
I11
ssI2
(dp78
I1
I15
sI2
I7
sI3
I6
sI4
I8
sI5
I6
sI6
I7
sI7
I8
sI8
I10
sI9
I11
sI10
I11
sI11
I20
sI12
I5
sI13
I19
sI14
I18
sI15
I13
sI16
I17
sI17
I20
sI18
I1
sI20
I1
ssI3
(dp79
I1
I18
sI2
I4
sI3
I2
sI4
I9
sI5
I3
sI6
I5
sI7
I6
sI8
I7
sI9
I13
sI10
I8
sI11
I9
sI12
I10
sI13
I15
sI14
I12
sI15
I1
sI16
I14
sI17
I19
sI18
I20
sI20
I17
sssI20
(dp80
I1
(dp81
I1
I18
sI2
I3
sI3
I5
sI4
I2
sI5
I12
sI6
I5
sI7
I6
sI8
I7
sI9
I4
sI10
I8
sI11
I9
sI12
I14
sI14
I18
sI15
I16
sI16
I14
sI17
I16
sI18
I20
ssI2
(dp82
I1
I20
sI2
I7
sI3
I6
sI4
I9
sI5
I6
sI6
I7
sI7
I8
sI8
I4
sI9
I13
sI10
I12
sI11
I10
sI12
I5
sI13
I15
sI14
I12
sI15
I1
sI16
I17
sI17
I19
sI18
I1
sI19
I15
ssI3
(dp83
I1
I15
sI2
I4
sI3
I2
sI4
I8
sI5
I3
sI6
I3
sI7
I2
sI8
I10
sI9
I11
sI10
I11
sI11
I20
sI12
I10
sI13
I9
sI14
I16
sI15
I19
sI16
I15
sI18
I14
sI19
I13
ssI4
(dp84
I17
I20
sI19
I17
sI13
I19
sI15
I13
sss.