(dp0
I1
(dp1
I1
(dp2
I2
I10
sI3
I2
sI4
I3
sI5
I1
sI6
I5
sI7
I4
sI8
I12
sI9
I13
sI10
I6
sI11
I21
sI12
I14
sI13
I10
sI14
I10
sI15
I19
sI16
I20
sI17
I14
sI18
I22
sI19
I23
sI20
I21
sI21
I17
sI22
I32
sI23
I27
sI24
I28
sI25
I21
sI26
I31
sI27
I29
sI28
I29
sI29
I30
sI30
I31
sI31
I32
sI32
I25
ssI2
(dp3
I2
I3
sI3
I4
sI4
I8
sI5
I9
sI6
I13
sI7
I3
sI8
I15
sI9
I11
sI10
I2
sI11
I1
sI12
I15
sI13
I17
sI14
I17
sI15
I16
sI16
I17
sI17
I21
sI18
I16
sI19
I18
sI20
I13
sI21
I11
sI22
I24
sI23
I19
sI24
I27
sI26
I22
sI27
I23
sI28
I27
sI29
I26
sI30
I26
sI31
I26
sI32
I22
ssI3
(dp4
I2
I7
sI3
I7
sI4
I7
sI6
I10
sI7
I12
sI8
I4
sI9
I1
sI10
I13
sI11
I13
sI12
I10
sI13
I9
sI14
I16
sI15
I12
sI16
I18
sI17
I13
sI18
I19
sI19
I15
sI20
I17
sI21
I25
sI22
I20
sI23
I24
sI24
I22
sI25
I32
sI26
I30
sI27
I28
sI28
I24
sI29
I28
sI30
I29
sI31
I30
sI32
I31
ssI4
(dp5
I2
I1
sI5
I6
sI6
I2
sI7
I2
sI8
I7
sI9
I5
sI10
I14
sI11
I9
sI12
I7
sI13
I6
sI14
I12
sI15
I8
sI16
I14
sI17
I20
sI18
I20
sI20
I16
sI21
I20
sI22
I18
sI23
I22
sI24
I23
sI26
I29
sI27
I24
sI29
I27
sssI2
(dp6
I1
(dp7
I1
I11
sI3
I4
sI4
I8
sI6
I2
sI7
I4
sI8
I12
sI9
I11
sI10
I6
sI11
I21
sI12
I14
sI13
I6
sI14
I10
sI15
I8
sI16
I18
sI17
I14
sI18
I22
sI19
I23
sI20
I21
sI21
I17
sI22
I32
sI23
I27
sI24
I28
sI25
I21
sI26
I31
sI27
I29
sI28
I29
sI29
I30
sI30
I31
sI31
I32
sI32
I25
ssI2
(dp8
I1
I2
sI3
I7
sI4
I3
sI5
I1
sI6
I5
sI7
I8
sI8
I15
sI9
I1
sI10
I14
sI11
I9
sI12
I15
sI13
I11
sI14
I17
sI15
I19
sI16
I20
sI17
I21
sI18
I20
sI19
I18
sI20
I17
sI21
I11
sI22
I24
sI23
I19
sI24
I27
sI26
I22
sI27
I23
sI28
I27
sI29
I26
sI30
I26
sI31
I26
sI32
I22
ssI3
(dp9
I1
I5
sI4
I7
sI5
I9
sI6
I10
sI7
I12
sI8
I4
sI9
I10
sI10
I2
sI11
I1
sI12
I10
sI13
I9
sI14
I16
sI15
I12
sI16
I15
sI17
I20
sI18
I19
sI19
I15
sI20
I22
sI21
I25
sI22
I18
sI23
I24
sI24
I22
sI25
I32
sI26
I30
sI27
I28
sI28
I24
sI29
I28
sI30
I29
sI31
I30
sI32
I31
ssI4
(dp10
I1
I9
sI3
I2
sI5
I6
sI6
I13
sI7
I3
sI8
I7
sI9
I5
sI10
I9
sI11
I13
sI12
I8
sI13
I17
sI14
I12
sI15
I16
sI16
I14
sI17
I16
sI20
I13
sI21
I20
sI22
I20
sI23
I22
sI24
I23
sI26
I29
sI27
I24
sI29
I27
ssI5
(dp11
I7
I2
sI9
I13
sI10
I13
sI12
I7
sI13
I7
sI14
I13
sI16
I17
sI17
I13
sI18
I16
sI20
I18
sssI3
(dp12
I1
(dp13
I1
I5
sI2
I10
sI4
I7
sI5
I6
sI6
I13
sI7
I3
sI8
I12
sI9
I13
sI10
I6
sI11
I1
sI12
I14
sI13
I7
sI14
I10
sI15
I12
sI16
I20
sI17
I14
sI18
I22
sI19
I23
sI20
I21
sI21
I17
sI22
I32
sI23
I27
sI24
I28
sI25
I21
sI26
I31
sI27
I29
sI28
I29
sI29
I30
sI30
I31
sI31
I32
sI32
I25
ssI2
(dp14
I1
I9
sI2
I3
sI4
I8
sI5
I9
sI6
I10
sI7
I13
sI8
I15
sI9
I11
sI10
I2
sI11
I21
sI12
I7
sI13
I10
sI14
I17
sI15
I19
sI16
I17
sI17
I13
sI18
I20
sI19
I18
sI20
I17
sI21
I25
sI22
I20
sI23
I24
sI24
I22
sI25
I32
sI26
I30
sI27
I28
sI28
I24
sI29
I28
sI30
I29
sI31
I30
sI32
I31
ssI3
(dp15
I1
I11
sI2
I6
sI4
I3
sI5
I1
sI6
I5
sI7
I8
sI8
I4
sI9
I1
sI10
I14
sI11
I13
sI12
I15
sI13
I14
sI14
I16
sI15
I8
sI16
I18
sI17
I21
sI18
I19
sI19
I15
sI20
I13
sI21
I11
sI22
I18
sI23
I19
sI24
I27
sI26
I22
sI27
I23
sI28
I27
sI29
I26
sI30
I26
sI31
I26
sI32
I22
sssI4
(dp16
I1
(dp17
I1
I5
sI2
I3
sI3
I4
sI5
I6
sI6
I10
sI7
I2
sI8
I12
sI9
I13
sI10
I2
sI11
I1
sI12
I14
sI13
I17
sI14
I10
sI15
I12
sI16
I20
sI17
I14
sI18
I22
sI19
I23
sI20
I21
sI21
I17
sI22
I32
sI23
I27
sI24
I28
sI25
I21
sI26
I31
sI27
I29
sI28
I29
sI29
I30
sI30
I31
sI31
I32
sI32
I25
ssI2
(dp18
I1
I9
sI2
I10
sI3
I7
sI5
I9
sI6
I13
sI7
I8
sI8
I4
sI9
I11
sI10
I14
sI11
I21
sI12
I15
sI13
I7
sI14
I17
sI15
I8
sI16
I18
sI17
I20
sI18
I19
sI19
I15
sI20
I22
sI21
I25
sI22
I18
sI23
I24
sI24
I22
sI25
I32
sI26
I30
sI27
I28
sI28
I24
sI29
I28
sI30
I29
sI31
I30
sI32
I31
ssI3
(dp19
I1
I11
sI2
I6
sI3
I2
sI5
I1
sI6
I5
sI7
I4
sI8
I15
sI9
I10
sI10
I12
sI11
I9
sI12
I7
sI13
I11
sI14
I16
sI15
I19
sI16
I17
sI17
I13
sI18
I20
sI19
I18
sI20
I17
sI21
I11
sI22
I24
sI23
I19
sI24
I27
sI26
I22
sI27
I23
sI28
I27
sI29
I26
sI30
I26
sI31
I26
sI32
I22
sssI5
(dp20
I1
(dp21
I1
I9
sI2
I10
sI3
I7
sI4
I7
sI6
I13
sI7
I12
sI8
I12
sI9
I5
sI10
I13
sI11
I1
sI12
I14
sI13
I9
sI14
I10
sI15
I8
sI16
I20
sI17
I14
sI18
I22
sI19
I23
sI20
I21
sI21
I17
sI22
I32
sI23
I27
sI24
I28
sI25
I21
sI26
I31
sI27
I29
sI28
I29
sI29
I30
sI30
I31
sI31
I32
sI32
I25
ssI2
(dp22
I1
I11
sI2
I6
sI3
I2
sI4
I3
sI6
I5
sI7
I13
sI8
I7
sI9
I13
sI10
I6
sI11
I21
sI12
I15
sI13
I6
sI14
I17
sI15
I19
sI16
I17
sI17
I13
sI18
I20
sI19
I18
sI20
I17
sI21
I25
sI22
I20
sI23
I24
sI24
I22
sI25
I32
sI26
I30
sI27
I28
sI28
I24
sI29
I28
sI30
I29
sI31
I30
sI32
I31
ssI3
(dp23
I1
I5
sI2
I3
sI3
I4
sI4
I8
sI6
I10
sI7
I2
sI8
I15
sI9
I1
sI10
I2
sI11
I9
sI12
I7
sI13
I17
sI14
I13
sI15
I16
sI16
I14
sI17
I21
sI18
I19
sI19
I15
sI20
I13
sI21
I11
sI22
I18
sI23
I19
sI24
I27
sI26
I22
sI27
I23
sI28
I27
sI29
I26
sI30
I26
sI31
I26
sI32
I22
sssI6
(dp24
I1
(dp25
I1
I5
sI2
I10
sI3
I2
sI4
I3
sI5
I9
sI7
I4
sI8
I12
sI9
I13
sI10
I6
sI11
I21
sI12
I14
sI13
I10
sI14
I10
sI15
I19
sI16
I20
sI17
I14
sI18
I22
sI19
I23
sI20
I21
sI21
I17
sI22
I32
sI23
I27
sI24
I28
sI25
I21
sI26
I31
sI27
I29
sI28
I29
sI29
I30
sI30
I31
sI31
I32
sI32
I25
ssI2
(dp26
I1
I2
sI2
I6
sI3
I4
sI4
I8
sI5
I1
sI7
I3
sI8
I15
sI9
I11
sI10
I2
sI11
I1
sI12
I15
sI13
I17
sI14
I17
sI15
I16
sI16
I17
sI17
I21
sI18
I16
sI19
I18
sI20
I13
sI21
I11
sI22
I24
sI23
I19
sI24
I27
sI26
I22
sI27
I23
sI28
I27
sI29
I26
sI30
I26
sI31
I26
sI32
I22
ssI3
(dp27
I1
I11
sI2
I3
sI3
I7
sI4
I7
sI7
I13
sI8
I4
sI9
I1
sI10
I14
sI11
I13
sI12
I7
sI13
I6
sI14
I16
sI15
I12
sI16
I18
sI17
I13
sI18
I19
sI19
I15
sI20
I17
sI21
I25
sI22
I20
sI23
I24
sI24
I22
sI25
I32
sI26
I30
sI27
I28
sI28
I24
sI29
I28
sI30
I29
sI31
I30
sI32
I31
ssI4
(dp28
I1
I9
sI2
I7
sI5
I6
sI7
I12
sI8
I7
sI9
I5
sI10
I13
sI11
I9
sI12
I10
sI13
I9
sI14
I12
sI15
I8
sI16
I14
sI17
I20
sI18
I20
sI20
I16
sI21
I20
sI22
I18
sI23
I22
sI24
I23
sI26
I29
sI27
I24
sI29
I27
sssI7
(dp29
I1
(dp30
I1
I5
sI2
I10
sI3
I2
sI4
I7
sI5
I6
sI6
I13
sI8
I4
sI9
I5
sI10
I14
sI11
I9
sI12
I15
sI13
I14
sI14
I12
sI15
I8
sI16
I14
sI17
I20
sI18
I19
sI19
I15
sI20
I22
sI21
I25
sI22
I24
sI23
I19
sI24
I27
sI25
I32
sI26
I30
sI27
I23
sI28
I27
sI29
I28
sI30
I29
sI31
I30
sI32
I31
ssI2
(dp31
I1
I9
sI2
I6
sI3
I4
sI4
I8
sI5
I1
sI6
I5
sI8
I7
sI9
I13
sI10
I6
sI11
I21
sI12
I8
sI13
I17
sI14
I10
sI15
I12
sI16
I15
sI17
I16
sI18
I16
sI19
I18
sI20
I18
sI21
I20
sI22
I20
sI23
I27
sI24
I28
sI26
I31
sI27
I29
sI28
I29
sI29
I30
sI30
I31
sI31
I32
sI32
I22
ssI3
(dp32
I1
I2
sI2
I3
sI3
I7
sI4
I3
sI5
I9
sI6
I2
sI8
I12
sI9
I11
sI10
I9
sI11
I1
sI12
I14
sI13
I11
sI14
I13
sI15
I16
sI16
I18
sI17
I14
sI18
I22
sI20
I21
sI21
I17
sI22
I32
sI23
I24
sI24
I22
sI25
I21
sI26
I22
sI27
I28
sI28
I24
sI29
I26
sI30
I26
sI31
I26
sI32
I25
ssI4
(dp33
I1
I11
sI2
I1
sI8
I15
sI9
I1
sI10
I13
sI11
I13
sI12
I10
sI13
I7
sI14
I16
sI15
I19
sI16
I17
sI17
I21
sI18
I20
sI19
I23
sI20
I16
sI21
I11
sI22
I18
sI23
I22
sI24
I23
sI26
I29
sI27
I24
sI29
I27
ssI5
(dp34
I2
I7
sI9
I10
sI10
I2
sI13
I9
sI14
I17
sI16
I20
sI17
I13
sI20
I17
ssI6
(dp35
I20
I13
sI10
I12
sI12
I7
sI13
I6
sI6
I10
ssI7
(dp36
I10
I7
sI13
I10
sssI8
(dp37
I1
(dp38
I1
I5
sI2
I3
sI3
I4
sI4
I8
sI5
I6
sI6
I13
sI7
I4
sI9
I5
sI10
I6
sI11
I9
sI12
I7
sI13
I7
sI14
I17
sI15
I12
sI16
I20
sI17
I13
sI18
I22
sI19
I23
sI20
I21
sI21
I17
sI22
I32
sI23
I27
sI24
I28
sI25
I21
sI26
I31
sI27
I29
sI28
I29
sI29
I30
sI30
I31
sI31
I32
sI32
I25
ssI2
(dp39
I1
I2
sI2
I7
sI3
I7
sI4
I3
sI5
I9
sI6
I10
sI7
I8
sI9
I13
sI10
I2
sI11
I1
sI12
I14
sI13
I17
sI14
I10
sI15
I19
sI16
I17
sI17
I14
sI18
I16
sI19
I18
sI20
I13
sI21
I25
sI22
I24
sI23
I19
sI24
I27
sI25
I32
sI26
I30
sI27
I23
sI28
I27
sI29
I28
sI30
I29
sI31
I30
sI32
I31
ssI3
(dp40
I1
I9
sI2
I10
sI4
I7
sI5
I1
sI6
I5
sI7
I12
sI9
I11
sI10
I14
sI11
I21
sI12
I15
sI13
I10
sI14
I16
sI15
I8
sI16
I18
sI17
I20
sI18
I19
sI19
I15
sI20
I22
sI21
I20
sI22
I18
sI23
I24
sI24
I22
sI26
I22
sI27
I28
sI28
I24
sI29
I26
sI30
I26
sI31
I26
sI32
I22
ssI4
(dp41
I1
I11
sI2
I1
sI3
I2
sI6
I2
sI7
I3
sI9
I1
sI10
I12
sI11
I13
sI12
I8
sI13
I14
sI14
I12
sI15
I16
sI16
I14
sI17
I21
sI18
I20
sI20
I17
sI21
I11
sI22
I20
sI23
I22
sI24
I23
sI26
I29
sI27
I24
sI29
I27
sssI9
(dp42
I1
(dp43
I1
I2
sI2
I3
sI3
I4
sI4
I8
sI5
I1
sI6
I10
sI7
I4
sI8
I12
sI10
I14
sI11
I9
sI12
I14
sI13
I11
sI14
I17
sI15
I8
sI16
I18
sI17
I21
sI18
I22
sI19
I18
sI20
I21
sI21
I11
sI22
I32
sI23
I27
sI24
I28
sI25
I21
sI26
I31
sI27
I29
sI28
I29
sI29
I30
sI30
I31
sI31
I32
sI32
I25
ssI2
(dp44
I1
I11
sI2
I7
sI3
I7
sI4
I3
sI5
I6
sI6
I2
sI7
I8
sI8
I15
sI10
I6
sI11
I21
sI12
I15
sI13
I9
sI14
I10
sI15
I19
sI16
I20
sI17
I13
sI18
I20
sI19
I23
sI20
I17
sI21
I25
sI22
I20
sI23
I24
sI24
I22
sI25
I32
sI26
I30
sI27
I28
sI28
I24
sI29
I28
sI30
I29
sI31
I30
sI32
I31
ssI3
(dp45
I2
I10
sI4
I7
sI6
I13
sI7
I12
sI8
I4
sI10
I9
sI11
I13
sI12
I10
sI13
I7
sI14
I16
sI15
I12
sI16
I15
sI17
I20
sI18
I19
sI19
I15
sI20
I22
sI21
I17
sI22
I24
sI23
I19
sI24
I27
sI26
I22
sI27
I23
sI28
I27
sI29
I26
sI30
I26
sI31
I26
sI32
I22
ssI4
(dp46
I1
I5
sI2
I6
sI3
I2
sI5
I9
sI6
I5
sI7
I3
sI8
I7
sI10
I2
sI11
I1
sI12
I8
sI13
I6
sI14
I13
sI15
I16
sI16
I17
sI17
I14
sI20
I13
sI21
I20
ssI5
(dp47
I1
I9
sI2
I1
sI7
I2
sI10
I13
sI12
I7
sI13
I17
sI14
I12
sI16
I14
sI17
I16
sI18
I16
sI20
I18
sI22
I18
sI23
I22
sI24
I23
sI26
I29
sI27
I24
sI29
I27
sssI10
(dp48
I1
(dp49
I1
I5
sI2
I6
sI3
I2
sI4
I3
sI5
I9
sI6
I5
sI7
I4
sI8
I4
sI9
I10
sI11
I9
sI12
I15
sI13
I11
sI14
I13
sI15
I16
sI16
I14
sI17
I20
sI18
I19
sI19
I15
sI20
I22
sI21
I25
sI22
I24
sI23
I19
sI24
I27
sI25
I32
sI26
I30
sI27
I23
sI28
I27
sI29
I28
sI30
I29
sI31
I30
sI32
I31
ssI2
(dp50
I2
I3
sI3
I4
sI4
I8
sI5
I6
sI6
I10
sI7
I3
sI8
I15
sI9
I5
sI11
I13
sI12
I8
sI13
I6
sI14
I16
sI15
I19
sI16
I17
sI17
I21
sI18
I16
sI19
I23
sI20
I18
sI21
I11
sI22
I18
sI23
I27
sI24
I28
sI26
I31
sI27
I29
sI28
I29
sI29
I30
sI30
I31
sI31
I32
sI32
I22
ssI3
(dp51
I1
I9
sI2
I1
sI3
I7
sI4
I7
sI5
I1
sI6
I2
sI7
I13
sI8
I7
sI9
I13
sI11
I1
sI13
I10
sI14
I17
sI15
I8
sI16
I18
sI17
I13
sI18
I22
sI19
I18
sI20
I21
sI21
I17
sI22
I32
sI23
I24
sI24
I22
sI25
I21
sI26
I22
sI27
I28
sI28
I24
sI29
I26
sI30
I26
sI31
I26
sI32
I25
ssI4
(dp52
I1
I11
sI2
I10
sI6
I13
sI7
I2
sI9
I11
sI11
I21
sI12
I7
sI13
I14
sI14
I12
sI16
I20
sI17
I14
sI18
I20
sI20
I17
sI21
I20
sI22
I20
sI23
I22
sI24
I23
sI26
I29
sI27
I24
sI29
I27
ssI5
(dp53
I7
I8
sI8
I12
sI12
I14
sI13
I17
sI14
I10
sI15
I12
sI16
I15
sI17
I16
sI20
I16
ssI6
(dp54
I1
I2
sI2
I7
sI7
I12
sI9
I1
sI12
I10
sI13
I9
sI20
I13
ssI7
(dp55
I13
I7
sI7
I10
sssI11
(dp56
I1
(dp57
I1
I5
sI2
I10
sI3
I4
sI4
I8
sI5
I9
sI6
I13
sI7
I4
sI8
I12
sI9
I13
sI10
I13
sI12
I14
sI13
I17
sI14
I10
sI15
I19
sI16
I20
sI17
I21
sI18
I22
sI19
I23
sI20
I21
sI21
I11
sI22
I32
sI23
I27
sI24
I28
sI25
I21
sI26
I31
sI27
I29
sI28
I29
sI29
I30
sI30
I31
sI31
I32
sI32
I25
ssI2
(dp58
I1
I2
sI2
I3
sI3
I7
sI4
I3
sI6
I10
sI7
I8
sI8
I15
sI9
I1
sI10
I2
sI12
I7
sI13
I11
sI14
I17
sI15
I16
sI16
I17
sI17
I13
sI18
I16
sI19
I18
sI20
I13
sI21
I17
sI22
I24
sI23
I19
sI24
I27
sI26
I22
sI27
I23
sI28
I27
sI29
I26
sI30
I26
sI31
I26
sI32
I22
ssI3
(dp59
I1
I9
sI2
I6
sI4
I7
sI5
I1
sI6
I5
sI7
I12
sI8
I4
sI9
I11
sI10
I9
sI12
I10
sI13
I6
sI14
I16
sI15
I12
sI16
I18
sI17
I14
sI18
I19
sI19
I15
sI20
I17
sI21
I25
sI22
I20
sI23
I24
sI24
I22
sI25
I32
sI26
I30
sI27
I28
sI28
I24
sI29
I28
sI30
I29
sI31
I30
sI32
I31
ssI4
(dp60
I1
I11
sI2
I1
sI3
I2
sI5
I6
sI6
I2
sI7
I3
sI8
I7
sI9
I5
sI10
I6
sI12
I15
sI13
I7
sI14
I12
sI15
I8
sI16
I14
sI17
I20
sI18
I20
sI20
I16
sI21
I20
sI22
I18
sI23
I22
sI24
I23
sI26
I29
sI27
I24
sI29
I27
sssI12
(dp61
I1
(dp62
I1
I11
sI2
I10
sI3
I4
sI4
I8
sI5
I1
sI6
I10
sI7
I4
sI8
I15
sI9
I11
sI10
I14
sI11
I21
sI13
I17
sI14
I17
sI15
I12
sI16
I15
sI17
I20
sI18
I19
sI19
I15
sI20
I22
sI21
I25
sI22
I24
sI23
I19
sI24
I27
sI25
I32
sI26
I30
sI27
I23
sI28
I27
sI29
I28
sI30
I29
sI31
I30
sI32
I31
ssI2
(dp63
I2
I3
sI3
I7
sI4
I3
sI5
I6
sI6
I2
sI7
I8
sI8
I12
sI9
I5
sI10
I6
sI11
I13
sI13
I6
sI14
I10
sI15
I8
sI16
I18
sI17
I21
sI18
I22
sI19
I18
sI20
I21
sI21
I11
sI22
I32
sI23
I27
sI24
I28
sI25
I21
sI26
I31
sI27
I29
sI28
I29
sI29
I30
sI30
I31
sI31
I32
sI32
I25
ssI3
(dp64
I1
I2
sI2
I7
sI3
I2
sI4
I7
sI6
I13
sI7
I12
sI8
I4
sI9
I1
sI10
I2
sI11
I1
sI13
I7
sI14
I16
sI15
I16
sI16
I20
sI17
I13
sI20
I17
sI21
I17
sI22
I20
sI23
I24
sI24
I22
sI26
I22
sI27
I28
sI28
I24
sI29
I26
sI30
I26
sI31
I26
sI32
I22
ssI4
(dp65
I1
I5
sI2
I6
sI5
I9
sI6
I5
sI7
I10
sI8
I7
sI9
I10
sI10
I12
sI11
I9
sI13
I11
sI14
I13
sI15
I19
sI16
I17
sI17
I14
sI18
I20
sI19
I23
sI20
I13
sI21
I20
sI22
I18
sI23
I22
sI24
I23
sI26
I29
sI27
I24
sI29
I27
ssI5
(dp66
I1
I9
sI2
I1
sI7
I13
sI9
I13
sI10
I7
sI13
I14
sI14
I12
sI16
I14
sI17
I16
sI18
I16
sI20
I18
sssI13
(dp67
I1
(dp68
I1
I2
sI2
I10
sI3
I2
sI4
I3
sI5
I1
sI6
I5
sI7
I4
sI8
I4
sI9
I11
sI10
I14
sI11
I1
sI12
I15
sI14
I13
sI15
I16
sI16
I14
sI17
I16
sI18
I19
sI19
I15
sI20
I22
sI21
I25
sI22
I24
sI23
I19
sI24
I27
sI25
I32
sI26
I30
sI27
I23
sI28
I27
sI29
I28
sI30
I29
sI31
I30
sI32
I31
ssI2
(dp69
I1
I5
sI2
I6
sI3
I4
sI4
I8
sI5
I6
sI6
I13
sI7
I3
sI8
I12
sI9
I5
sI10
I6
sI11
I13
sI12
I14
sI14
I10
sI15
I8
sI16
I17
sI17
I21
sI18
I16
sI19
I18
sI20
I18
sI21
I11
sI22
I20
sI23
I27
sI24
I28
sI26
I31
sI27
I29
sI28
I29
sI29
I30
sI30
I31
sI31
I32
sI32
I22
ssI3
(dp70
I1
I9
sI2
I3
sI3
I7
sI4
I7
sI5
I9
sI6
I2
sI7
I12
sI9
I13
sI10
I9
sI11
I9
sI12
I10
sI14
I12
sI16
I18
sI17
I14
sI18
I22
sI20
I21
sI21
I17
sI22
I32
sI23
I24
sI24
I22
sI25
I21
sI26
I22
sI27
I28
sI28
I24
sI29
I26
sI30
I26
sI31
I26
sI32
I25
ssI4
(dp71
I2
I7
sI6
I10
sI7
I10
sI8
I7
sI9
I10
sI10
I13
sI12
I8
sI14
I16
sI15
I12
sI16
I15
sI17
I20
sI20
I16
ssI5
(dp72
I1
I11
sI2
I1
sI7
I2
sI9
I1
sI10
I2
sI11
I21
sI14
I17
sI16
I20
sI17
I13
sI20
I17
sI21
I20
ssI6
(dp73
I7
I8
sI8
I15
sI10
I12
sI12
I7
sI15
I19
sI18
I20
sI19
I23
sI20
I13
sI22
I18
sI23
I22
sI24
I23
sI26
I29
sI27
I24
sI29
I27
ssI7
(dp74
I10
I7
sI7
I13
sssI14
(dp75
I1
(dp76
I1
I5
sI2
I10
sI3
I4
sI4
I8
sI5
I6
sI6
I13
sI7
I4
sI8
I12
sI9
I5
sI10
I14
sI11
I13
sI12
I10
sI13
I7
sI15
I12
sI16
I15
sI17
I20
sI18
I19
sI19
I15
sI20
I22
sI21
I17
sI22
I24
sI23
I19
sI24
I27
sI26
I31
sI27
I23
sI28
I27
sI29
I30
sI30
I31
sI31
I32
sI32
I22
ssI2
(dp77
I2
I3
sI3
I7
sI4
I7
sI5
I9
sI6
I2
sI7
I12
sI8
I4
sI9
I10
sI10
I6
sI11
I9
sI12
I14
sI13
I11
sI15
I8
sI16
I18
sI17
I21
sI18
I22
sI19
I18
sI20
I21
sI21
I11
sI22
I32
sI23
I27
sI24
I28
sI25
I21
sI26
I22
sI27
I29
sI28
I29
sI29
I26
sI30
I26
sI31
I26
sI32
I25
ssI3
(dp78
I1
I2
sI2
I7
sI3
I2
sI4
I3
sI6
I10
sI7
I8
sI8
I15
sI9
I11
sI10
I2
sI11
I1
sI12
I15
sI13
I17
sI15
I19
sI16
I20
sI17
I14
sI18
I20
sI19
I23
sI20
I17
sI21
I25
sI22
I20
sI23
I24
sI24
I22
sI25
I32
sI26
I30
sI27
I28
sI28
I24
sI29
I28
sI30
I29
sI31
I30
sI32
I31
ssI4
(dp79
I1
I9
sI2
I6
sI5
I1
sI6
I5
sI7
I10
sI8
I7
sI9
I13
sI10
I13
sI12
I8
sI13
I14
sI15
I16
sI16
I17
sI17
I13
sI20
I13
ssI5
(dp80
I1
I11
sI2
I1
sI7
I13
sI9
I1
sI10
I12
sI11
I21
sI12
I7
sI13
I9
sI16
I14
sI17
I16
sI18
I16
sI20
I18
sI21
I20
sI22
I18
sI23
I22
sI24
I23
sI26
I29
sI27
I24
sI29
I27
sssI15
(dp81
I1
(dp82
I1
I5
sI2
I10
sI3
I4
sI4
I8
sI5
I9
sI6
I13
sI7
I4
sI8
I12
sI9
I13
sI10
I14
sI11
I1
sI12
I15
sI13
I10
sI14
I12
sI16
I20
sI17
I13
sI18
I22
sI19
I23
sI20
I21
sI21
I17
sI22
I32
sI23
I27
sI24
I28
sI25
I21
sI26
I31
sI27
I29
sI28
I29
sI29
I30
sI30
I31
sI31
I32
sI32
I25
ssI2
(dp83
I1
I2
sI2
I3
sI3
I7
sI4
I3
sI6
I10
sI7
I8
sI8
I15
sI9
I1
sI10
I2
sI11
I9
sI12
I7
sI13
I6
sI14
I10
sI16
I17
sI17
I14
sI18
I16
sI19
I18
sI20
I13
sI21
I11
sI22
I24
sI23
I19
sI24
I27
sI26
I22
sI27
I23
sI28
I27
sI29
I26
sI30
I26
sI31
I26
sI32
I22
ssI3
(dp84
I1
I9
sI2
I6
sI4
I7
sI5
I1
sI6
I5
sI7
I12
sI8
I4
sI9
I11
sI10
I13
sI11
I13
sI12
I14
sI13
I14
sI14
I17
sI16
I18
sI17
I20
sI18
I19
sI19
I15
sI20
I16
sI21
I25
sI22
I20
sI23
I24
sI24
I22
sI25
I32
sI26
I30
sI27
I28
sI28
I24
sI29
I28
sI30
I29
sI31
I30
sI32
I31
ssI4
(dp85
I1
I11
sI2
I1
sI3
I2
sI5
I6
sI6
I2
sI7
I3
sI8
I7
sI9
I5
sI10
I6
sI11
I21
sI12
I8
sI13
I7
sI14
I16
sI16
I15
sI17
I16
sI18
I20
sI20
I17
sI21
I20
sI22
I18
sI23
I22
sI24
I23
sI26
I29
sI27
I24
sI29
I27
sssI16
(dp86
I1
(dp87
I1
I5
sI2
I3
sI3
I4
sI4
I8
sI5
I9
sI6
I5
sI7
I4
sI8
I12
sI9
I10
sI10
I13
sI11
I9
sI12
I14
sI13
I14
sI14
I17
sI15
I16
sI17
I20
sI18
I19
sI19
I15
sI20
I22
sI22
I24
sI23
I19
sI24
I27
sI26
I31
sI27
I23
sI28
I27
sI29
I30
sI30
I31
sI31
I32
sI32
I22
ssI2
(dp88
I1
I2
sI2
I7
sI3
I7
sI4
I3
sI5
I1
sI6
I2
sI7
I8
sI8
I15
sI9
I11
sI10
I6
sI11
I1
sI12
I15
sI13
I11
sI14
I10
sI15
I19
sI17
I21
sI18
I16
sI19
I23
sI20
I18
sI21
I11
sI22
I18
sI23
I27
sI24
I28
sI26
I22
sI27
I29
sI28
I29
sI29
I26
sI30
I26
sI31
I26
ssI3
(dp89
I1
I9
sI2
I6
sI4
I7
sI5
I6
sI6
I13
sI7
I13
sI8
I4
sI9
I5
sI10
I2
sI11
I13
sI12
I8
sI13
I17
sI14
I12
sI15
I8
sI17
I16
sI18
I22
sI19
I18
sI20
I13
sI21
I25
sI22
I20
sI23
I24
sI24
I22
sI25
I32
sI26
I30
sI27
I28
sI28
I24
sI29
I28
sI30
I29
sI31
I30
sI32
I31
ssI4
(dp90
I1
I11
sI2
I1
sI3
I2
sI6
I10
sI7
I3
sI8
I7
sI9
I1
sI10
I12
sI11
I21
sI12
I7
sI13
I9
sI14
I13
sI15
I12
sI17
I13
sI18
I20
sI20
I16
sI21
I20
sI22
I32
sI23
I22
sI24
I23
sI25
I21
sI26
I29
sI27
I24
sI29
I27
sI32
I25
ssI5
(dp91
I2
I10
sI7
I2
sI9
I13
sI10
I14
sI12
I10
sI13
I7
sI14
I16
sI17
I14
sI20
I21
sI21
I17
sssI17
(dp92
I1
(dp93
I1
I5
sI2
I10
sI3
I4
sI4
I8
sI5
I6
sI6
I13
sI7
I4
sI8
I12
sI9
I5
sI10
I13
sI11
I9
sI12
I14
sI13
I14
sI14
I16
sI15
I8
sI16
I18
sI18
I22
sI19
I18
sI20
I21
sI21
I17
sI22
I32
sI23
I27
sI24
I28
sI25
I21
sI26
I31
sI27
I29
sI28
I29
sI29
I30
sI30
I31
sI31
I32
sI32
I25
ssI2
(dp94
I2
I3
sI3
I7
sI4
I7
sI5
I9
sI6
I10
sI7
I12
sI8
I4
sI9
I10
sI10
I14
sI11
I13
sI12
I10
sI13
I7
sI14
I17
sI15
I12
sI16
I15
sI20
I13
sI21
I11
ssI3
(dp95
I1
I2
sI2
I7
sI3
I2
sI4
I3
sI6
I2
sI7
I8
sI8
I15
sI9
I11
sI10
I6
sI11
I1
sI12
I15
sI13
I11
sI14
I10
sI15
I19
sI16
I20
sI18
I20
sI19
I23
sI20
I17
sI21
I25
sI22
I20
sI23
I24
sI24
I22
sI25
I32
sI26
I30
sI27
I28
sI28
I24
sI29
I28
sI30
I29
sI31
I30
sI32
I31
ssI4
(dp96
I1
I9
sI2
I6
sI5
I1
sI6
I5
sI7
I13
sI8
I7
sI9
I13
sI10
I12
sI12
I8
sI13
I17
sI14
I12
sI15
I16
sI16
I14
sI18
I19
sI19
I15
sI20
I22
sI22
I24
sI23
I19
sI24
I27
sI26
I22
sI27
I23
sI28
I27
sI29
I26
sI30
I26
sI31
I26
sI32
I22
ssI5
(dp97
I1
I11
sI2
I1
sI7
I10
sI9
I1
sI10
I2
sI11
I21
sI12
I7
sI13
I9
sI14
I13
sI16
I17
sI18
I16
sI20
I18
sI21
I20
sI22
I18
sI23
I22
sI24
I23
sI26
I29
sI27
I24
sI29
I27
sssI18
(dp98
I1
(dp99
I1
I5
sI2
I10
sI3
I4
sI4
I8
sI5
I9
sI6
I13
sI7
I4
sI8
I12
sI9
I13
sI10
I14
sI11
I1
sI12
I15
sI13
I10
sI14
I12
sI15
I16
sI16
I20
sI17
I21
sI19
I18
sI20
I22
sI21
I11
sI22
I24
sI23
I19
sI24
I27
sI26
I31
sI27
I23
sI28
I27
sI29
I30
sI30
I31
sI31
I32
sI32
I22
ssI2
(dp100
I1
I2
sI2
I3
sI3
I7
sI4
I3
sI6
I10
sI7
I8
sI8
I15
sI9
I1
sI10
I2
sI11
I9
sI12
I7
sI13
I6
sI14
I10
sI15
I19
sI16
I14
sI17
I14
sI19
I23
sI20
I13
sI21
I17
sI22
I18
sI23
I27
sI24
I28
sI26
I22
sI27
I29
sI28
I29
sI29
I26
sI30
I26
sI31
I26
ssI3
(dp101
I1
I9
sI2
I6
sI4
I7
sI5
I1
sI6
I5
sI7
I12
sI8
I4
sI9
I11
sI10
I13
sI11
I13
sI12
I14
sI13
I14
sI14
I17
sI15
I8
sI16
I18
sI17
I20
sI19
I15
sI20
I16
sI21
I25
sI22
I20
sI23
I24
sI24
I22
sI25
I32
sI26
I30
sI27
I28
sI28
I24
sI29
I28
sI30
I29
sI31
I30
sI32
I31
ssI4
(dp102
I1
I11
sI2
I1
sI3
I2
sI5
I6
sI6
I2
sI7
I3
sI8
I7
sI9
I5
sI10
I6
sI11
I21
sI12
I8
sI13
I7
sI14
I16
sI15
I12
sI16
I17
sI17
I13
sI20
I18
sI21
I20
sI22
I32
sI23
I22
sI24
I23
sI25
I21
sI26
I29
sI27
I24
sI29
I27
sI32
I25
sssI19
(dp103
I1
(dp104
I1
I5
sI2
I10
sI3
I4
sI4
I8
sI5
I6
sI6
I13
sI7
I8
sI8
I15
sI9
I11
sI10
I6
sI11
I1
sI12
I15
sI13
I7
sI14
I10
sI15
I19
sI16
I20
sI17
I13
sI18
I20
sI20
I21
sI21
I17
sI22
I20
sI23
I27
sI24
I28
sI26
I31
sI27
I29
sI28
I29
sI29
I30
sI30
I31
sI31
I32
sI32
I22
ssI2
(dp105
I1
I9
sI2
I3
sI3
I7
sI4
I7
sI5
I9
sI6
I10
sI7
I12
sI8
I4
sI9
I13
sI10
I13
sI11
I9
sI12
I14
sI13
I14
sI14
I17
sI15
I8
sI16
I18
sI17
I20
sI18
I22
sI20
I16
sI21
I11
sI22
I24
sI23
I19
sI24
I27
sI25
I21
sI26
I22
sI27
I23
sI28
I27
sI29
I26
sI30
I26
sI31
I26
sI32
I25
ssI3
(dp106
I1
I11
sI2
I6
sI3
I2
sI4
I3
sI5
I1
sI6
I5
sI7
I2
sI8
I12
sI9
I10
sI10
I14
sI11
I21
sI12
I7
sI13
I6
sI14
I12
sI15
I12
sI16
I17
sI17
I14
sI18
I19
sI20
I22
sI21
I25
sI22
I18
sI23
I24
sI24
I22
sI25
I32
sI26
I30
sI27
I28
sI28
I24
sI29
I28
sI30
I29
sI31
I30
sI32
I31
sssI20
(dp107
I1
(dp108
I1
I5
sI2
I6
sI3
I7
sI4
I7
sI5
I6
sI6
I13
sI7
I13
sI8
I4
sI9
I5
sI10
I6
sI11
I13
sI12
I15
sI13
I14
sI14
I16
sI15
I8
sI16
I18
sI17
I21
sI18
I22
sI19
I18
sI21
I25
sI22
I20
sI23
I27
sI24
I28
sI25
I32
sI26
I31
sI27
I29
sI28
I29
sI29
I30
sI30
I31
sI31
I32
sI32
I22
ssI2
(dp109
I1
I9
sI2
I10
sI3
I2
sI4
I3
sI5
I1
sI6
I5
sI7
I4
sI8
I7
sI9
I13
sI10
I9
sI12
I8
sI13
I17
sI14
I12
sI15
I16
sI16
I20
sI17
I16
sI18
I19
sI19
I15
sI21
I17
sI22
I24
sI23
I19
sI24
I27
sI26
I22
sI27
I23
sI28
I27
sI29
I26
sI30
I26
sI31
I26
sI32
I31
ssI3
(dp110
I1
I2
sI2
I3
sI3
I4
sI4
I8
sI5
I9
sI6
I2
sI7
I3
sI8
I12
sI9
I11
sI10
I13
sI11
I1
sI12
I14
sI13
I20
sI14
I10
sI15
I12
sI16
I15
sI17
I13
sI18
I16
sI21
I11
sI22
I32
sI23
I24
sI24
I22
sI25
I21
sI26
I30
sI27
I28
sI28
I24
sI29
I28
sI30
I29
sI31
I30
sI32
I25
ssI4
(dp111
I2
I7
sI7
I12
sI9
I10
sI10
I14
sI11
I9
sI12
I10
sI13
I11
sI14
I17
sI16
I17
sI17
I20
ssI5
(dp112
I1
I11
sI2
I1
sI6
I10
sI7
I2
sI9
I1
sI10
I2
sI11
I21
sI13
I6
sI14
I13
sI16
I14
sI17
I14
sI21
I20
ssI6
(dp113
I7
I8
sI8
I15
sI10
I12
sI12
I7
sI13
I10
sI15
I19
sI18
I20
sI19
I23
sI22
I18
sI23
I22
sI24
I23
sI26
I29
sI27
I24
sI29
I27
sssI21
(dp114
I1
(dp115
I1
I5
sI2
I10
sI3
I4
sI4
I8
sI5
I9
sI6
I13
sI7
I4
sI8
I12
sI9
I11
sI10
I13
sI11
I13
sI12
I14
sI13
I14
sI14
I16
sI15
I12
sI16
I20
sI17
I21
sI18
I19
sI19
I15
sI20
I17
sI22
I24
sI23
I19
sI24
I27
sI25
I32
sI26
I31
sI27
I23
sI28
I27
sI29
I30
sI30
I31
sI31
I32
sI32
I22
ssI2
(dp116
I1
I2
sI2
I3
sI3
I7
sI4
I3
sI6
I10
sI7
I8
sI8
I15
sI9
I1
sI10
I2
sI11
I1
sI12
I7
sI13
I6
sI14
I10
sI15
I19
sI16
I17
sI17
I14
sI18
I20
sI19
I23
sI20
I21
sI22
I18
sI23
I27
sI24
I28
sI26
I22
sI27
I29
sI28
I29
sI29
I26
sI30
I26
sI31
I26
sI32
I31
ssI3
(dp117
I1
I9
sI2
I6
sI4
I7
sI5
I1
sI6
I5
sI7
I12
sI8
I4
sI9
I13
sI10
I9
sI11
I9
sI12
I10
sI13
I17
sI14
I12
sI15
I16
sI16
I18
sI17
I20
sI18
I22
sI19
I18
sI20
I16
sI22
I32
sI23
I24
sI24
I22
sI25
I21
sI26
I30
sI27
I28
sI28
I24
sI29
I28
sI30
I29
sI31
I30
sI32
I25
ssI4
(dp118
I1
I11
sI2
I1
sI3
I2
sI5
I6
sI6
I2
sI7
I3
sI8
I7
sI9
I5
sI10
I6
sI11
I21
sI12
I15
sI13
I7
sI14
I17
sI15
I8
sI16
I14
sI17
I13
sI18
I16
sI20
I13
sI22
I20
sI23
I22
sI24
I23
sI26
I29
sI27
I24
sI29
I27
sssI22
(dp119
I1
(dp120
I1
I5
sI2
I10
sI3
I4
sI4
I8
sI5
I9
sI6
I13
sI7
I4
sI8
I12
sI9
I13
sI10
I14
sI11
I1
sI12
I15
sI13
I10
sI14
I12
sI15
I16
sI16
I18
sI17
I21
sI18
I22
sI19
I18
sI20
I13
sI21
I11
sI23
I19
sI24
I27
sI26
I31
sI27
I23
sI28
I27
sI29
I30
sI30
I31
sI31
I32
sI32
I22
ssI2
(dp121
I1
I2
sI2
I3
sI3
I7
sI4
I3
sI6
I10
sI7
I8
sI8
I15
sI9
I1
sI10
I2
sI11
I9
sI12
I7
sI13
I6
sI14
I10
sI15
I19
sI16
I14
sI17
I14
sI18
I19
sI19
I23
sI20
I16
sI21
I17
sI23
I27
sI24
I28
sI25
I21
sI26
I22
sI27
I29
sI28
I29
sI29
I26
sI31
I26
sI32
I25
ssI3
(dp122
I1
I9
sI2
I6
sI4
I7
sI5
I1
sI6
I5
sI7
I12
sI8
I4
sI9
I11
sI10
I13
sI11
I13
sI12
I14
sI13
I14
sI14
I17
sI15
I8
sI16
I20
sI17
I20
sI18
I16
sI19
I15
sI20
I22
sI21
I20
sI23
I24
sI24
I22
sI26
I30
sI27
I28
sI28
I24
sI29
I28
sI30
I29
ssI4
(dp123
I1
I11
sI2
I1
sI3
I2
sI5
I6
sI6
I2
sI7
I3
sI8
I7
sI9
I5
sI10
I6
sI11
I21
sI12
I8
sI13
I7
sI14
I16
sI15
I12
sI16
I17
sI17
I13
sI18
I20
sI20
I21
sI21
I25
sI23
I22
sI24
I23
sI25
I32
sI26
I29
sI27
I24
sI29
I27
sI30
I26
sI31
I30
sI32
I31
sssI23
(dp124
I1
(dp125
I1
I5
sI2
I10
sI3
I4
sI4
I8
sI5
I9
sI6
I13
sI7
I4
sI8
I12
sI9
I13
sI10
I14
sI11
I1
sI12
I15
sI13
I10
sI14
I12
sI15
I16
sI16
I18
sI17
I21
sI18
I22
sI19
I15
sI20
I13
sI21
I11
sI22
I24
sI24
I27
sI26
I31
sI27
I23
sI28
I27
sI29
I30
sI30
I31
sI31
I32
sI32
I22
ssI2
(dp126
I1
I2
sI2
I3
sI3
I7
sI4
I3
sI6
I10
sI7
I8
sI8
I15
sI9
I1
sI10
I2
sI11
I9
sI12
I7
sI13
I6
sI14
I10
sI15
I19
sI16
I14
sI17
I14
sI18
I19
sI19
I23
sI20
I16
sI21
I17
sI22
I18
sI24
I28
sI25
I21
sI26
I22
sI27
I29
sI28
I29
sI29
I26
sI31
I26
sI32
I25
ssI3
(dp127
I1
I9
sI2
I6
sI4
I7
sI5
I1
sI6
I5
sI7
I12
sI8
I4
sI9
I11
sI10
I13
sI11
I13
sI12
I14
sI13
I14
sI14
I17
sI15
I8
sI16
I20
sI17
I20
sI18
I16
sI19
I18
sI20
I22
sI21
I20
sI22
I23
sI24
I22
sI26
I30
sI27
I28
sI28
I24
sI29
I28
sI30
I29
ssI4
(dp128
I1
I11
sI2
I1
sI3
I2
sI5
I6
sI6
I2
sI7
I3
sI8
I7
sI9
I5
sI10
I6
sI11
I21
sI12
I8
sI13
I7
sI14
I16
sI15
I12
sI16
I17
sI17
I13
sI18
I20
sI20
I21
sI21
I25
sI22
I20
sI24
I23
sI25
I32
sI26
I29
sI27
I24
sI29
I27
sI30
I26
sI31
I30
sI32
I31
sssI24
(dp129
I1
(dp130
I1
I5
sI2
I10
sI3
I4
sI4
I8
sI5
I9
sI6
I13
sI7
I4
sI8
I12
sI9
I13
sI10
I14
sI11
I1
sI12
I15
sI13
I10
sI14
I12
sI15
I16
sI16
I18
sI17
I21
sI18
I22
sI19
I15
sI20
I13
sI21
I11
sI22
I23
sI23
I27
sI25
I21
sI26
I30
sI27
I28
sI28
I24
sI29
I28
sI30
I29
sI31
I26
sI32
I25
ssI2
(dp131
I1
I9
sI2
I3
sI3
I7
sI4
I3
sI5
I6
sI6
I10
sI7
I8
sI8
I15
sI9
I10
sI10
I12
sI11
I9
sI12
I7
sI13
I6
sI14
I10
sI15
I19
sI16
I14
sI17
I14
sI18
I19
sI19
I23
sI20
I16
sI21
I17
sI22
I18
sI23
I24
sI26
I31
sI27
I23
sI28
I27
sI29
I30
sI30
I31
sI31
I32
sI32
I22
ssI3
(dp132
I1
I2
sI2
I7
sI4
I7
sI6
I2
sI7
I12
sI8
I4
sI9
I11
sI10
I13
sI11
I13
sI12
I14
sI13
I14
sI14
I17
sI15
I8
sI16
I20
sI17
I20
sI18
I16
sI19
I18
sI20
I22
sI21
I20
sI22
I24
sI23
I19
sI26
I22
sI27
I29
sI28
I29
sI29
I26
ssI4
(dp133
I1
I11
sI2
I6
sI3
I2
sI5
I1
sI6
I5
sI7
I3
sI8
I7
sI9
I1
sI10
I2
sI11
I21
sI12
I8
sI13
I7
sI14
I16
sI15
I12
sI16
I17
sI17
I13
sI18
I20
sI20
I21
sI21
I25
sI22
I20
sI23
I22
sI25
I32
sI26
I29
sI27
I24
sI29
I27
sI30
I26
sI31
I30
sI32
I31
sssI25
(dp134
I1
(dp135
I1
I5
sI2
I10
sI3
I4
sI4
I8
sI5
I6
sI6
I13
sI7
I8
sI8
I15
sI9
I13
sI10
I6
sI11
I1
sI12
I7
sI13
I7
sI14
I17
sI15
I19
sI16
I20
sI17
I20
sI18
I22
sI19
I23
sI20
I22
sI21
I11
sI22
I24
sI23
I27
sI24
I28
sI26
I31
sI27
I29
sI28
I29
sI29
I30
sI30
I31
sI31
I32
sI32
I25
ssI2
(dp136
I1
I9
sI2
I3
sI3
I7
sI4
I7
sI5
I9
sI6
I10
sI7
I12
sI8
I4
sI9
I11
sI10
I13
sI11
I21
sI12
I14
sI13
I9
sI14
I10
sI15
I8
sI16
I18
sI17
I13
sI18
I20
sI19
I15
sI20
I21
sI21
I25
sI22
I18
sI23
I19
sI24
I22
sI26
I22
sI27
I23
sI28
I24
sI29
I26
sI30
I26
sI31
I26
sI32
I22
sssI26
(dp137
I1
(dp138
I1
I5
sI2
I10
sI3
I4
sI4
I8
sI5
I9
sI6
I13
sI7
I4
sI8
I12
sI9
I13
sI10
I14
sI11
I1
sI12
I15
sI13
I10
sI14
I12
sI15
I16
sI16
I18
sI17
I21
sI18
I22
sI19
I15
sI20
I13
sI21
I11
sI22
I23
sI23
I24
sI24
I28
sI25
I21
sI27
I28
sI28
I29
sI29
I30
sI30
I31
sI31
I26
sI32
I25
ssI2
(dp139
I1
I2
sI2
I3
sI3
I7
sI4
I3
sI6
I10
sI7
I8
sI8
I15
sI9
I1
sI10
I2
sI11
I9
sI12
I7
sI13
I6
sI14
I10
sI15
I19
sI16
I14
sI17
I14
sI18
I19
sI19
I23
sI20
I16
sI21
I17
sI22
I18
sI23
I27
sI24
I22
sI27
I29
sI28
I24
sI29
I26
sI30
I29
sI31
I32
sI32
I22
ssI3
(dp140
I1
I9
sI2
I6
sI4
I7
sI5
I1
sI6
I5
sI7
I12
sI8
I4
sI9
I11
sI10
I13
sI11
I13
sI12
I14
sI13
I14
sI14
I17
sI15
I8
sI16
I20
sI17
I20
sI18
I16
sI19
I18
sI20
I22
sI21
I20
sI22
I26
sI23
I19
sI24
I27
sI27
I23
sI28
I27
sI29
I28
ssI4
(dp141
I1
I11
sI2
I1
sI3
I2
sI5
I6
sI6
I2
sI7
I3
sI8
I7
sI9
I5
sI10
I6
sI11
I21
sI12
I8
sI13
I7
sI14
I16
sI15
I12
sI16
I17
sI17
I13
sI18
I20
sI20
I21
sI21
I25
sI22
I20
sI23
I22
sI24
I23
sI25
I32
sI27
I24
sI29
I27
sI30
I26
sI31
I30
sI32
I31
sssI27
(dp142
I1
(dp143
I1
I5
sI2
I10
sI3
I4
sI4
I8
sI5
I9
sI6
I13
sI7
I4
sI8
I12
sI9
I13
sI10
I14
sI11
I1
sI12
I15
sI13
I10
sI14
I12
sI15
I16
sI16
I18
sI17
I21
sI18
I22
sI19
I15
sI20
I13
sI21
I11
sI22
I23
sI23
I24
sI24
I28
sI25
I21
sI26
I30
sI28
I27
sI29
I28
sI30
I29
sI31
I26
sI32
I25
ssI2
(dp144
I1
I2
sI2
I3
sI3
I7
sI4
I3
sI6
I10
sI7
I8
sI8
I15
sI9
I1
sI10
I2
sI11
I9
sI12
I7
sI13
I6
sI14
I10
sI15
I19
sI16
I14
sI17
I14
sI18
I19
sI19
I23
sI20
I16
sI21
I17
sI22
I18
sI23
I27
sI24
I22
sI26
I31
sI28
I24
sI29
I30
sI30
I31
sI31
I32
sI32
I22
ssI3
(dp145
I1
I9
sI2
I6
sI4
I7
sI5
I1
sI6
I5
sI7
I12
sI8
I4
sI9
I11
sI10
I13
sI11
I13
sI12
I14
sI13
I14
sI14
I17
sI15
I8
sI16
I20
sI17
I20
sI18
I16
sI19
I18
sI20
I22
sI21
I20
sI22
I24
sI23
I19
sI24
I27
sI26
I22
sI28
I29
sI29
I26
ssI4
(dp146
I1
I11
sI2
I1
sI3
I2
sI5
I6
sI6
I2
sI7
I3
sI8
I7
sI9
I5
sI10
I6
sI11
I21
sI12
I8
sI13
I7
sI14
I16
sI15
I12
sI16
I17
sI17
I13
sI18
I20
sI20
I21
sI21
I25
sI22
I20
sI23
I22
sI24
I23
sI25
I32
sI26
I29
sI29
I27
sI30
I26
sI31
I30
sI32
I31
sssI28
(dp147
I1
(dp148
I1
I5
sI2
I10
sI3
I4
sI4
I8
sI5
I6
sI6
I13
sI7
I8
sI8
I15
sI9
I11
sI10
I6
sI11
I1
sI12
I15
sI13
I7
sI14
I10
sI15
I19
sI16
I17
sI17
I13
sI18
I19
sI19
I23
sI20
I13
sI21
I11
sI22
I18
sI23
I27
sI24
I22
sI25
I21
sI26
I30
sI27
I28
sI29
I27
sI30
I29
sI31
I26
sI32
I25
ssI2
(dp149
I1
I9
sI2
I3
sI3
I7
sI4
I7
sI5
I9
sI6
I10
sI7
I12
sI8
I4
sI9
I13
sI10
I13
sI11
I9
sI12
I14
sI13
I14
sI14
I17
sI15
I8
sI16
I20
sI17
I20
sI18
I22
sI19
I15
sI20
I22
sI21
I17
sI22
I24
sI23
I24
sI24
I28
sI26
I31
sI27
I24
sI29
I30
sI30
I31
sI31
I32
sI32
I22
ssI3
(dp150
I1
I11
sI2
I6
sI3
I2
sI4
I3
sI5
I1
sI6
I5
sI7
I2
sI8
I12
sI9
I10
sI10
I14
sI11
I21
sI12
I7
sI13
I6
sI14
I12
sI15
I12
sI16
I14
sI17
I21
sI18
I16
sI19
I18
sI20
I16
sI21
I25
sI22
I23
sI23
I19
sI24
I27
sI25
I32
sI26
I29
sI27
I23
sI29
I28
sI30
I26
sI31
I30
sI32
I31
sssI29
(dp151
I1
(dp152
I1
I5
sI2
I10
sI3
I4
sI4
I8
sI5
I9
sI6
I13
sI7
I4
sI8
I12
sI9
I13
sI10
I14
sI11
I1
sI12
I15
sI13
I10
sI14
I12
sI15
I16
sI16
I18
sI17
I21
sI18
I22
sI19
I15
sI20
I13
sI21
I11
sI22
I23
sI23
I24
sI24
I28
sI26
I31
sI27
I28
sI28
I29
sI30
I31
sI31
I32
sI32
I22
ssI2
(dp153
I1
I2
sI2
I3
sI3
I7
sI4
I3
sI6
I10
sI7
I8
sI8
I15
sI9
I1
sI10
I2
sI11
I9
sI12
I7
sI13
I6
sI14
I10
sI15
I19
sI16
I14
sI17
I14
sI18
I19
sI19
I23
sI20
I16
sI21
I17
sI22
I18
sI23
I27
sI24
I22
sI25
I21
sI26
I22
sI27
I29
sI28
I24
sI31
I26
sI32
I25
ssI3
(dp154
I1
I9
sI2
I6
sI4
I7
sI5
I1
sI6
I5
sI7
I12
sI8
I4
sI9
I11
sI10
I13
sI11
I13
sI12
I14
sI13
I14
sI14
I17
sI15
I8
sI16
I20
sI17
I20
sI18
I16
sI19
I18
sI20
I22
sI21
I20
sI22
I26
sI23
I19
sI24
I27
sI26
I30
sI27
I23
sI28
I27
sI30
I29
ssI4
(dp155
I1
I11
sI2
I1
sI3
I2
sI5
I6
sI6
I2
sI7
I3
sI8
I7
sI9
I5
sI10
I6
sI11
I21
sI12
I8
sI13
I7
sI14
I16
sI15
I12
sI16
I17
sI17
I13
sI18
I20
sI20
I21
sI21
I25
sI22
I20
sI23
I22
sI24
I23
sI25
I32
sI26
I29
sI27
I24
sI30
I26
sI31
I30
sI32
I31
sssI30
(dp156
I1
(dp157
I1
I5
sI2
I10
sI3
I4
sI4
I8
sI5
I6
sI6
I13
sI7
I8
sI8
I15
sI9
I11
sI10
I6
sI11
I1
sI12
I15
sI13
I7
sI14
I10
sI15
I19
sI16
I17
sI17
I13
sI18
I19
sI19
I23
sI20
I13
sI21
I11
sI22
I18
sI23
I27
sI24
I22
sI25
I21
sI26
I30
sI27
I29
sI28
I24
sI29
I26
sI31
I26
sI32
I25
ssI2
(dp158
I1
I9
sI2
I3
sI3
I7
sI4
I7
sI5
I9
sI6
I10
sI7
I12
sI8
I4
sI9
I13
sI10
I13
sI11
I9
sI12
I14
sI13
I14
sI14
I17
sI15
I8
sI16
I20
sI17
I20
sI18
I22
sI19
I15
sI20
I22
sI21
I17
sI22
I24
sI23
I24
sI24
I28
sI26
I31
sI27
I28
sI28
I29
sI29
I30
sI31
I32
sI32
I22
ssI3
(dp159
I1
I11
sI2
I6
sI3
I2
sI4
I3
sI5
I1
sI6
I5
sI7
I2
sI8
I12
sI9
I10
sI10
I14
sI11
I21
sI12
I7
sI13
I6
sI14
I12
sI15
I12
sI16
I14
sI17
I21
sI18
I16
sI19
I18
sI20
I16
sI21
I25
sI22
I23
sI23
I19
sI24
I27
sI25
I32
sI26
I22
sI27
I23
sI28
I27
sI29
I27
sI31
I30
sI32
I31
sssI31
(dp160
I1
(dp161
I1
I5
sI2
I10
sI3
I4
sI4
I8
sI5
I6
sI6
I13
sI7
I8
sI8
I15
sI9
I11
sI10
I6
sI11
I1
sI12
I15
sI13
I7
sI14
I10
sI15
I19
sI16
I17
sI17
I13
sI18
I19
sI19
I23
sI20
I13
sI21
I11
sI22
I18
sI23
I27
sI24
I22
sI25
I21
sI26
I30
sI27
I29
sI28
I24
sI29
I30
sI30
I31
sI32
I25
ssI2
(dp162
I1
I9
sI2
I3
sI3
I7
sI4
I7
sI5
I9
sI6
I10
sI7
I12
sI8
I4
sI9
I13
sI10
I13
sI11
I9
sI12
I14
sI13
I14
sI14
I17
sI15
I8
sI16
I20
sI17
I20
sI18
I22
sI19
I15
sI20
I22
sI21
I17
sI22
I24
sI23
I24
sI24
I28
sI26
I31
sI27
I28
sI28
I29
sI29
I26
sI30
I26
sI32
I22
ssI3
(dp163
I1
I11
sI2
I6
sI3
I2
sI4
I3
sI5
I1
sI6
I5
sI7
I2
sI8
I12
sI9
I10
sI10
I14
sI11
I21
sI12
I7
sI13
I6
sI14
I12
sI15
I12
sI16
I14
sI17
I21
sI18
I16
sI19
I18
sI20
I16
sI21
I25
sI22
I23
sI23
I19
sI24
I27
sI25
I32
sI26
I22
sI27
I23
sI28
I27
sI29
I27
sI30
I29
sI32
I31
sssI32
(dp164
I1
(dp165
I1
I9
sI2
I6
sI3
I4
sI4
I8
sI5
I9
sI6
I13
sI7
I8
sI8
I15
sI9
I13
sI10
I12
sI11
I13
sI12
I15
sI13
I7
sI14
I17
sI15
I19
sI16
I20
sI17
I20
sI18
I19
sI19
I23
sI20
I22
sI21
I17
sI22
I24
sI23
I27
sI24
I28
sI25
I21
sI26
I31
sI27
I29
sI28
I29
sI29
I30
sI30
I31
sI31
I32
ssI2
(dp166
I1
I5
sI2
I10
sI3
I2
sI4
I7
sI5
I6
sI6
I10
sI7
I3
sI8
I4
sI9
I11
sI10
I14
sI11
I1
sI12
I7
sI13
I6
sI14
I16
sI15
I8
sI16
I18
sI17
I21
sI18
I22
sI19
I15
sI20
I13
sI21
I11
sI22
I32
sI23
I19
sI24
I27
sI26
I22
sI27
I23
sI28
I27
sI29
I26
sI30
I26
sI31
I26
ssI3
(dp167
I1
I11
sI2
I3
sI3
I7
sI4
I3
sI5
I1
sI6
I2
sI7
I12
sI8
I12
sI9
I5
sI10
I13
sI11
I21
sI12
I14
sI13
I9
sI14
I10
sI15
I12
sI16
I17
sI17
I13
sI18
I16
sI19
I18
sI20
I16
sI21
I25
sI22
I18
sI23
I24
sI24
I22
sI25
I32
sI26
I30
sI27
I28
sI28
I24
sI29
I28
sI30
I29
sI31
I30
sss.