(dp0
I1
(dp1
I1
(dp2
I2
I3
sI3
I45
sI4
I46
sI5
I1
sI6
I13
sI7
I11
sI8
I44
sI9
I23
sI10
I44
sI11
I44
sI12
I16
sI13
I12
sI14
I23
sI15
I6
sI16
I44
sI17
I22
sI18
I34
sI19
I20
sI20
I3
sI21
I18
sI22
I44
sI23
I44
sI24
I44
sI25
I8
sI26
I33
sI27
I44
sI28
I18
sI29
I8
sI30
I18
sI31
I8
sI32
I8
sI33
I8
sI34
I12
sI35
I8
sI36
I8
sI37
I18
sI38
I8
sI39
I30
sI40
I9
sI41
I3
sI42
I4
sI43
I3
sI44
I5
sI45
I12
sI46
I44
ssI2
(dp3
I2
I1
sI3
I5
sI4
I2
sI5
I44
sI6
I18
sI7
I17
sI8
I39
sI9
I32
sI10
I22
sI11
I21
sI12
I45
sI13
I6
sI14
I44
sI15
I18
sI16
I6
sI17
I27
sI18
I38
sI19
I3
sI20
I4
sI21
I44
sI22
I14
sI23
I8
sI24
I17
sI25
I9
sI26
I17
sI27
I12
sI28
I8
sI29
I10
sI30
I44
sI31
I9
sI32
I18
sI33
I9
sI34
I8
sI35
I9
sI36
I18
sI37
I8
sI38
I12
sI39
I44
sI40
I11
sI41
I4
sI42
I44
sI43
I4
sI44
I24
sI45
I4
sI46
I4
ssI3
(dp4
I2
I4
sI3
I12
sI4
I1
sI5
I12
sI6
I11
sI7
I9
sI8
I33
sI9
I13
sI10
I6
sI11
I7
sI12
I21
sI13
I18
sI14
I18
sI15
I8
sI16
I18
sI17
I7
sI18
I4
sI19
I4
sI20
I19
sI21
I17
sI22
I8
sI23
I9
sI24
I8
sI25
I11
sI26
I44
sI27
I8
sI28
I9
sI29
I9
sI30
I8
sI31
I11
sI32
I9
sI33
I26
sI34
I9
sI35
I11
sI36
I9
sI37
I9
sI38
I9
sI39
I8
sI40
I14
sI42
I12
sI44
I3
sI45
I3
ssI4
(dp5
I3
I1
sI4
I5
sI5
I3
sI6
I44
sI7
I12
sI8
I30
sI9
I21
sI10
I34
sI11
I15
sI12
I42
sI13
I17
sI14
I6
sI15
I44
sI16
I8
sI17
I31
sI18
I27
sI21
I12
sI22
I9
sI23
I11
sI24
I9
sI25
I12
sI26
I8
sI27
I17
sI28
I44
sI29
I11
sI30
I10
sI31
I44
sI32
I10
sI33
I11
sI34
I18
sI35
I44
sI36
I11
sI37
I11
sI38
I10
sI39
I9
sI40
I15
sI42
I3
sI44
I12
sssI2
(dp6
I1
(dp7
I1
I4
sI3
I45
sI4
I2
sI5
I44
sI6
I13
sI7
I11
sI8
I44
sI9
I23
sI10
I22
sI11
I44
sI12
I45
sI13
I12
sI14
I23
sI15
I44
sI16
I44
sI17
I22
sI18
I34
sI19
I20
sI20
I3
sI21
I8
sI22
I44
sI23
I44
sI24
I44
sI25
I8
sI26
I33
sI27
I44
sI28
I18
sI29
I8
sI30
I8
sI31
I8
sI32
I8
sI33
I8
sI34
I12
sI35
I8
sI36
I18
sI37
I18
sI38
I8
sI39
I8
sI40
I9
sI41
I3
sI42
I4
sI43
I3
sI44
I46
sI45
I4
sI46
I4
ssI2
(dp8
I1
I5
sI3
I2
sI4
I46
sI5
I12
sI6
I11
sI7
I12
sI8
I39
sI9
I32
sI10
I44
sI11
I7
sI12
I42
sI13
I6
sI14
I18
sI15
I6
sI16
I6
sI17
I31
sI18
I38
sI19
I3
sI20
I4
sI21
I18
sI22
I8
sI23
I8
sI24
I8
sI25
I11
sI26
I8
sI27
I8
sI28
I8
sI29
I10
sI30
I18
sI31
I44
sI32
I18
sI33
I9
sI34
I8
sI35
I9
sI36
I8
sI37
I8
sI38
I12
sI39
I30
sI40
I11
sI41
I4
sI42
I3
sI43
I4
sI44
I21
sI45
I3
sI46
I44
ssI3
(dp9
I1
I2
sI3
I5
sI4
I1
sI5
I4
sI6
I18
sI7
I9
sI8
I33
sI9
I13
sI10
I17
sI11
I21
sI12
I21
sI13
I18
sI14
I44
sI15
I18
sI16
I11
sI17
I25
sI18
I4
sI19
I4
sI20
I19
sI21
I44
sI22
I9
sI23
I9
sI24
I17
sI25
I9
sI26
I44
sI27
I9
sI28
I9
sI29
I9
sI30
I44
sI31
I9
sI32
I44
sI33
I26
sI34
I9
sI35
I11
sI36
I9
sI37
I9
sI38
I9
sI39
I9
sI40
I14
sI42
I44
sI44
I3
sI45
I12
sssI3
(dp10
I1
(dp11
I1
I2
sI2
I3
sI4
I2
sI5
I1
sI6
I13
sI7
I11
sI8
I25
sI9
I16
sI10
I13
sI11
I22
sI12
I5
sI13
I44
sI14
I23
sI15
I44
sI16
I44
sI17
I40
sI18
I39
sI19
I4
sI20
I4
sI21
I9
sI22
I44
sI23
I44
sI24
I8
sI25
I44
sI26
I9
sI27
I8
sI28
I8
sI29
I8
sI30
I44
sI31
I8
sI32
I8
sI33
I9
sI34
I8
sI35
I8
sI36
I8
sI37
I12
sI38
I9
sI39
I30
sI40
I15
sI41
I4
sI42
I12
sI43
I4
sI44
I37
sI45
I4
ssI2
(dp12
I1
I4
sI2
I1
sI4
I42
sI5
I4
sI6
I16
sI7
I12
sI8
I22
sI9
I29
sI10
I26
sI11
I30
sI12
I42
sI13
I6
sI14
I6
sI15
I8
sI16
I12
sI17
I33
sI18
I35
sI21
I11
sI22
I12
sI23
I8
sI24
I9
sI25
I9
sI26
I44
sI27
I9
sI28
I9
sI29
I44
sI30
I18
sI31
I9
sI32
I9
sI33
I26
sI34
I9
sI35
I44
sI36
I9
sI37
I8
sI38
I10
sI39
I8
sI40
I11
sI42
I3
sI44
I12
sI45
I12
ssI3
(dp13
I1
I5
sI2
I4
sI4
I46
sI5
I12
sI6
I10
sI7
I17
sI8
I30
sI9
I27
sI10
I15
sI11
I13
sI12
I3
sI13
I12
sI14
I25
sI15
I12
sI16
I8
sI17
I26
sI18
I13
sI21
I12
sI22
I8
sI23
I9
sI24
I11
sI25
I17
sI26
I33
sI27
I12
sI28
I11
sI29
I9
sI30
I12
sI31
I11
sI32
I10
sI33
I8
sI34
I12
sI35
I9
sI36
I11
sI37
I9
sI38
I11
sI39
I11
sI42
I44
sI44
I16
sI46
I44
ssI4
(dp14
I4
I8
sI5
I44
sI6
I44
sI7
I6
sI8
I27
sI9
I32
sI10
I18
sI11
I26
sI12
I36
sI13
I8
sI14
I35
sI15
I40
sI16
I6
sI17
I28
sI18
I7
sI21
I17
sI22
I9
sI23
I11
sI24
I17
sI25
I11
sI26
I12
sI27
I44
sI28
I44
sI29
I10
sI30
I39
sI31
I12
sI32
I44
sI33
I11
sI34
I17
sI35
I17
sI36
I18
sI37
I11
sI38
I12
sI39
I9
sI40
I9
sI44
I3
ssI5
(dp15
I4
I5
sI5
I3
sI6
I15
sI7
I18
sI8
I28
sI9
I30
sI10
I22
sI11
I24
sI12
I35
sI13
I9
sI14
I37
sI15
I18
sI16
I9
sI17
I15
sI18
I36
sI21
I18
sI22
I14
sI23
I14
sI24
I18
sI25
I18
sI26
I10
sI27
I10
sI28
I10
sI29
I11
sI30
I17
sI31
I17
sI32
I11
sI33
I17
sI35
I14
sI36
I44
sI37
I17
sI38
I17
sI39
I12
sI44
I5
ssI6
(dp16
I1
I3
sI4
I1
sI6
I14
sI8
I24
sI9
I23
sI10
I6
sI11
I23
sI12
I21
sI13
I11
sI14
I40
sI15
I10
sI16
I10
sI17
I38
sI18
I30
sI21
I44
sI22
I11
sI23
I12
sI24
I12
sI26
I11
sI27
I11
sI28
I12
sI29
I12
sI30
I8
sI31
I18
sI32
I18
sI33
I18
sI35
I11
sI36
I12
sI37
I18
sI38
I8
sI39
I17
sI40
I17
sI42
I4
sI44
I42
ssI7
(dp17
I4
I20
sI6
I17
sI8
I33
sI9
I38
sI10
I28
sI11
I25
sI12
I39
sI13
I17
sI14
I28
sI15
I11
sI16
I18
sI17
I16
sI18
I4
sI19
I20
sI20
I3
sI22
I17
sI23
I17
sI25
I12
sI26
I17
sI27
I17
sI28
I18
sI29
I18
sI30
I9
sI33
I44
sI35
I18
sI36
I14
sI37
I44
sI38
I44
sI39
I18
sI44
I22
ssI8
(dp18
I4
I19
sI6
I18
sI8
I4
sI9
I6
sI10
I29
sI11
I32
sI12
I34
sI13
I18
sI14
I44
sI16
I11
sI17
I22
sI18
I25
sI19
I3
sI20
I19
sI22
I18
sI23
I18
sI25
I8
sI26
I8
sI28
I14
sI29
I17
sI30
I10
sI32
I12
sI34
I18
sI36
I17
sI38
I18
sI44
I26
ssI9
(dp19
I4
I45
sI6
I11
sI8
I34
sI9
I25
sI10
I12
sI11
I33
sI12
I45
sI14
I22
sI15
I6
sI16
I17
sI17
I27
sI18
I6
sI22
I10
sI25
I14
sI26
I18
sI27
I18
sI28
I17
sI30
I11
sI33
I12
sI34
I10
sI44
I15
sI45
I3
ssI10
(dp20
I4
I41
sI6
I7
sI7
I9
sI8
I10
sI9
I24
sI10
I17
sI11
I6
sI12
I15
sI14
I17
sI44
I46
sI17
I24
sI18
I21
sI21
I8
sI41
I3
sI24
I44
sI46
I4
sI15
I17
ssI11
(dp21
I34
I44
sI35
I12
sI4
I43
sI37
I14
sI6
I9
sI39
I44
sI8
I39
sI9
I7
sI10
I34
sI11
I35
sI12
I37
sI14
I9
sI44
I4
sI17
I39
sI18
I8
sI43
I3
sI7
I44
ssI12
(dp22
I32
I17
sI4
I3
sI6
I12
sI8
I32
sI9
I31
sI10
I32
sI11
I40
sI12
I4
sI13
I10
sI14
I8
sI44
I13
sI17
I6
sI18
I15
sI40
I14
sI15
I9
sI31
I44
sssI4
(dp23
I1
(dp24
I1
I2
sI2
I3
sI3
I5
sI5
I4
sI6
I13
sI7
I11
sI8
I25
sI9
I16
sI10
I13
sI11
I22
sI12
I15
sI13
I44
sI14
I23
sI15
I44
sI16
I44
sI17
I40
sI18
I39
sI19
I20
sI20
I3
sI21
I9
sI22
I44
sI23
I44
sI24
I8
sI25
I44
sI26
I9
sI27
I8
sI28
I8
sI29
I8
sI30
I44
sI31
I8
sI32
I8
sI33
I9
sI34
I8
sI35
I8
sI36
I8
sI37
I8
sI38
I9
sI39
I30
sI40
I15
sI41
I3
sI42
I44
sI43
I3
sI44
I5
sI45
I3
sI46
I44
ssI2
(dp25
I1
I3
sI2
I1
sI3
I44
sI5
I1
sI6
I16
sI7
I12
sI8
I22
sI9
I29
sI10
I26
sI11
I30
sI12
I21
sI13
I8
sI14
I12
sI15
I6
sI16
I12
sI17
I33
sI18
I35
sI19
I3
sI20
I19
sI21
I44
sI22
I12
sI23
I8
sI24
I9
sI25
I9
sI26
I44
sI27
I9
sI28
I9
sI29
I44
sI30
I18
sI31
I9
sI32
I9
sI33
I26
sI34
I9
sI35
I44
sI36
I9
sI37
I9
sI38
I10
sI39
I8
sI40
I11
sI42
I4
sI44
I42
ssI3
(dp26
I1
I5
sI3
I42
sI5
I12
sI6
I10
sI7
I17
sI8
I27
sI9
I32
sI10
I15
sI11
I24
sI12
I36
sI13
I9
sI14
I28
sI15
I12
sI16
I6
sI17
I28
sI18
I4
sI21
I11
sI22
I8
sI23
I18
sI24
I18
sI25
I11
sI26
I10
sI27
I44
sI28
I18
sI29
I9
sI30
I39
sI31
I11
sI32
I44
sI33
I11
sI34
I12
sI35
I9
sI36
I18
sI37
I11
sI38
I11
sI39
I9
sI42
I12
sI44
I23
ssI4
(dp27
I3
I45
sI5
I44
sI6
I15
sI7
I18
sI8
I4
sI9
I30
sI10
I18
sI11
I13
sI12
I39
sI13
I12
sI14
I25
sI15
I11
sI16
I9
sI17
I26
sI18
I30
sI21
I12
sI22
I9
sI23
I9
sI24
I11
sI25
I17
sI26
I33
sI27
I10
sI28
I11
sI29
I10
sI30
I8
sI31
I12
sI32
I10
sI33
I8
sI34
I17
sI35
I11
sI36
I11
sI37
I12
sI38
I12
sI39
I18
sI44
I15
sI45
I12
ssI5
(dp28
I3
I12
sI6
I11
sI8
I33
sI9
I23
sI10
I12
sI11
I26
sI12
I45
sI13
I10
sI14
I35
sI15
I18
sI16
I10
sI17
I15
sI18
I36
sI21
I17
sI22
I11
sI23
I17
sI25
I14
sI26
I12
sI27
I11
sI28
I12
sI29
I11
sI30
I9
sI31
I17
sI32
I11
sI33
I44
sI34
I18
sI35
I17
sI36
I44
sI37
I18
sI38
I17
sI39
I11
sI44
I13
sI45
I4
ssI6
(dp29
I1
I4
sI3
I1
sI5
I3
sI6
I14
sI8
I28
sI9
I27
sI10
I22
sI11
I23
sI12
I5
sI13
I11
sI14
I37
sI15
I8
sI16
I18
sI17
I16
sI18
I23
sI21
I18
sI22
I14
sI23
I12
sI25
I18
sI26
I11
sI27
I12
sI28
I10
sI29
I12
sI30
I11
sI31
I18
sI32
I18
sI33
I17
sI35
I12
sI36
I12
sI37
I17
sI38
I18
sI39
I12
sI44
I6
ssI7
(dp30
I2
I4
sI3
I2
sI6
I17
sI8
I30
sI9
I25
sI10
I6
sI11
I25
sI12
I42
sI13
I6
sI14
I22
sI15
I40
sI16
I8
sI17
I38
sI18
I13
sI22
I10
sI23
I11
sI25
I12
sI26
I17
sI27
I17
sI28
I17
sI29
I18
sI30
I12
sI33
I18
sI35
I18
sI36
I14
sI37
I44
sI38
I8
sI39
I17
sI40
I9
sI42
I3
sI44
I16
ssI8
(dp31
I3
I19
sI6
I18
sI8
I24
sI9
I38
sI10
I28
sI11
I40
sI12
I3
sI13
I17
sI14
I44
sI15
I9
sI16
I17
sI17
I22
sI18
I25
sI19
I4
sI22
I18
sI23
I14
sI24
I12
sI25
I8
sI26
I8
sI27
I18
sI28
I14
sI30
I17
sI36
I17
sI38
I44
sI40
I14
sI44
I26
ssI9
(dp32
I3
I20
sI6
I44
sI7
I6
sI8
I34
sI9
I6
sI10
I29
sI11
I32
sI12
I35
sI13
I18
sI14
I40
sI15
I10
sI17
I24
sI18
I7
sI20
I4
sI22
I17
sI24
I44
sI26
I18
sI28
I44
sI29
I17
sI32
I12
sI34
I10
sI35
I14
sI40
I17
sI44
I3
ssI10
(dp33
I3
I41
sI37
I14
sI6
I7
sI7
I9
sI8
I10
sI9
I24
sI10
I17
sI11
I6
sI12
I37
sI14
I6
sI44
I46
sI17
I44
sI18
I6
sI46
I4
sI41
I4
sI24
I17
sI15
I17
ssI11
(dp34
I33
I12
sI34
I44
sI3
I43
sI6
I9
sI39
I44
sI8
I39
sI9
I7
sI10
I34
sI11
I33
sI12
I14
sI14
I9
sI44
I4
sI17
I39
sI18
I21
sI21
I8
sI43
I4
sI7
I44
ssI12
(dp35
I32
I17
sI3
I4
sI6
I12
sI8
I32
sI9
I31
sI10
I16
sI11
I14
sI12
I4
sI14
I8
sI44
I30
sI16
I11
sI17
I6
sI18
I8
sI30
I10
sI31
I44
sssI5
(dp36
I1
(dp37
I1
I2
sI2
I3
sI3
I42
sI4
I42
sI6
I18
sI7
I44
sI8
I36
sI9
I23
sI10
I26
sI11
I44
sI12
I5
sI13
I12
sI14
I23
sI15
I44
sI16
I6
sI17
I22
sI18
I34
sI19
I20
sI20
I3
sI21
I8
sI22
I18
sI23
I44
sI24
I44
sI25
I44
sI26
I12
sI27
I8
sI28
I18
sI29
I18
sI30
I8
sI31
I18
sI32
I44
sI33
I44
sI34
I12
sI35
I8
sI36
I44
sI37
I18
sI38
I44
sI39
I8
sI40
I9
sI41
I3
sI42
I12
sI43
I3
sI44
I13
sI45
I3
ssI2
(dp38
I1
I5
sI2
I1
sI3
I45
sI4
I2
sI6
I10
sI7
I11
sI8
I44
sI9
I32
sI10
I22
sI11
I21
sI12
I44
sI13
I6
sI14
I44
sI15
I6
sI16
I44
sI17
I27
sI18
I38
sI19
I3
sI20
I4
sI21
I18
sI22
I14
sI23
I8
sI24
I8
sI25
I8
sI26
I33
sI27
I12
sI28
I44
sI29
I8
sI30
I18
sI31
I8
sI32
I18
sI33
I8
sI34
I8
sI35
I9
sI36
I8
sI37
I8
sI38
I12
sI39
I11
sI40
I11
sI41
I4
sI42
I4
sI43
I4
sI44
I42
sI45
I12
ssI3
(dp39
I1
I3
sI2
I4
sI3
I12
sI4
I5
sI6
I11
sI7
I9
sI8
I33
sI9
I13
sI10
I44
sI11
I7
sI12
I21
sI13
I18
sI14
I6
sI15
I18
sI16
I18
sI17
I31
sI18
I4
sI19
I4
sI20
I19
sI21
I44
sI22
I8
sI23
I9
sI24
I17
sI25
I9
sI26
I44
sI27
I9
sI28
I8
sI29
I9
sI30
I39
sI31
I44
sI32
I8
sI33
I26
sI34
I9
sI35
I44
sI36
I9
sI37
I9
sI38
I8
sI39
I9
sI40
I14
sI42
I44
sI44
I46
sI45
I4
sI46
I4
ssI4
(dp40
I1
I4
sI3
I44
sI4
I46
sI6
I44
sI7
I17
sI8
I25
sI9
I25
sI10
I6
sI11
I22
sI12
I26
sI13
I17
sI14
I18
sI15
I10
sI16
I11
sI17
I24
sI18
I12
sI21
I9
sI22
I44
sI23
I18
sI24
I18
sI25
I18
sI26
I10
sI27
I10
sI28
I9
sI29
I11
sI30
I44
sI31
I9
sI32
I9
sI33
I9
sI34
I10
sI35
I17
sI36
I11
sI37
I11
sI38
I9
sI39
I30
sI40
I15
sI44
I5
sI46
I44
ssI5
(dp41
I3
I5
sI4
I18
sI6
I7
sI7
I12
sI8
I29
sI9
I29
sI10
I34
sI11
I6
sI12
I42
sI13
I11
sI14
I25
sI15
I8
sI16
I8
sI17
I33
sI18
I23
sI21
I11
sI22
I9
sI23
I11
sI24
I9
sI25
I17
sI26
I8
sI27
I11
sI28
I10
sI29
I10
sI30
I9
sI31
I11
sI32
I10
sI33
I18
sI34
I18
sI35
I11
sI36
I12
sI37
I12
sI38
I10
sI39
I12
sI40
I17
sI42
I3
sI44
I3
sssI6
(dp42
I1
(dp43
I1
I5
sI2
I1
sI3
I1
sI4
I2
sI5
I44
sI7
I9
sI8
I25
sI9
I16
sI10
I13
sI11
I22
sI12
I45
sI13
I18
sI14
I28
sI15
I6
sI16
I44
sI17
I40
sI18
I39
sI21
I9
sI22
I44
sI23
I9
sI24
I8
sI25
I44
sI26
I9
sI27
I8
sI28
I18
sI29
I8
sI30
I44
sI31
I9
sI32
I8
sI33
I9
sI34
I8
sI35
I8
sI36
I8
sI37
I8
sI38
I9
sI39
I30
sI40
I15
sI41
I3
sI43
I3
sI44
I15
sI45
I4
ssI2
(dp44
I1
I4
sI2
I4
sI3
I2
sI4
I18
sI5
I4
sI7
I11
sI8
I27
sI9
I29
sI10
I15
sI11
I30
sI12
I4
sI13
I6
sI14
I23
sI15
I12
sI16
I9
sI17
I33
sI18
I13
sI21
I11
sI22
I8
sI23
I44
sI24
I9
sI25
I9
sI26
I44
sI27
I44
sI28
I8
sI29
I44
sI30
I18
sI31
I11
sI32
I9
sI33
I26
sI34
I9
sI35
I9
sI36
I9
sI37
I9
sI38
I10
sI39
I11
sI40
I11
sI44
I5
ssI3
(dp45
I1
I2
sI2
I3
sI3
I19
sI4
I42
sI5
I1
sI7
I12
sI8
I28
sI9
I32
sI10
I29
sI11
I13
sI12
I5
sI13
I12
sI14
I25
sI15
I8
sI16
I10
sI17
I28
sI18
I10
sI19
I4
sI20
I19
sI21
I12
sI22
I9
sI23
I14
sI24
I11
sI25
I17
sI26
I10
sI27
I9
sI28
I44
sI29
I17
sI30
I39
sI31
I12
sI32
I44
sI33
I11
sI34
I12
sI35
I14
sI36
I11
sI37
I11
sI38
I11
sI39
I9
sI42
I44
sI44
I6
ssI4
(dp46
I3
I20
sI4
I12
sI5
I3
sI7
I6
sI8
I34
sI9
I30
sI10
I26
sI11
I26
sI12
I29
sI13
I8
sI14
I44
sI15
I40
sI16
I11
sI17
I24
sI18
I7
sI20
I4
sI21
I17
sI22
I11
sI23
I18
sI24
I44
sI25
I11
sI26
I18
sI27
I10
sI28
I9
sI29
I10
sI30
I17
sI31
I17
sI32
I10
sI33
I17
sI34
I10
sI35
I18
sI36
I14
sI37
I12
sI38
I12
sI39
I12
sI40
I9
sI44
I23
ssI5
(dp47
I3
I41
sI4
I46
sI7
I17
sI8
I10
sI9
I25
sI10
I6
sI11
I23
sI12
I42
sI13
I9
sI14
I22
sI15
I9
sI16
I12
sI17
I26
sI18
I30
sI21
I18
sI22
I10
sI23
I12
sI24
I12
sI25
I14
sI26
I33
sI27
I11
sI28
I10
sI29
I11
sI30
I8
sI31
I18
sI32
I11
sI33
I8
sI34
I17
sI36
I17
sI37
I14
sI38
I17
sI39
I17
sI41
I4
sI42
I3
sI44
I25
sI46
I44
ssI6
(dp48
I3
I43
sI4
I44
sI7
I18
sI8
I33
sI9
I23
sI10
I12
sI11
I24
sI12
I3
sI13
I17
sI14
I35
sI15
I18
sI16
I17
sI17
I15
sI18
I6
sI21
I44
sI22
I17
sI23
I17
sI24
I18
sI25
I18
sI26
I11
sI27
I17
sI28
I11
sI29
I12
sI30
I9
sI32
I18
sI33
I44
sI34
I18
sI35
I17
sI36
I18
sI37
I18
sI38
I18
sI43
I4
sI44
I32
ssI7
(dp49
I3
I5
sI4
I5
sI5
I12
sI8
I39
sI9
I27
sI10
I22
sI11
I25
sI12
I16
sI13
I44
sI14
I37
sI15
I11
sI16
I6
sI17
I16
sI18
I35
sI22
I14
sI25
I12
sI26
I12
sI27
I12
sI28
I12
sI29
I18
sI30
I10
sI33
I18
sI35
I44
sI37
I17
sI38
I44
sI39
I44
sI42
I4
sI44
I42
ssI8
(dp50
I1
I3
sI3
I42
sI4
I1
sI8
I4
sI9
I6
sI10
I28
sI11
I32
sI12
I36
sI14
I40
sI15
I17
sI16
I18
sI17
I44
sI18
I36
sI22
I18
sI26
I17
sI27
I18
sI28
I14
sI29
I9
sI30
I11
sI32
I12
sI36
I44
sI40
I17
sI42
I12
sI44
I29
ssI9
(dp51
I3
I45
sI4
I20
sI8
I22
sI9
I24
sI10
I17
sI11
I6
sI12
I39
sI13
I11
sI14
I18
sI15
I44
sI17
I13
sI18
I37
sI19
I20
sI20
I3
sI22
I12
sI24
I17
sI28
I17
sI35
I11
sI37
I44
sI39
I18
sI44
I35
sI45
I12
ssI10
(dp52
I33
I12
sI3
I12
sI4
I19
sI38
I8
sI8
I30
sI9
I38
sI10
I18
sI11
I33
sI12
I6
sI13
I10
sI14
I9
sI44
I13
sI17
I38
sI18
I23
sI19
I3
sI23
I11
sI30
I12
ssI11
(dp53
I34
I44
sI3
I4
sI4
I8
sI39
I8
sI8
I14
sI9
I7
sI10
I34
sI11
I35
sI12
I34
sI14
I6
sI44
I46
sI17
I39
sI18
I25
sI35
I12
sI46
I4
sI7
I44
sI25
I8
ssI12
(dp54
I32
I17
sI3
I44
sI4
I45
sI8
I32
sI9
I31
sI10
I32
sI11
I36
sI12
I21
sI45
I3
sI14
I36
sI44
I16
sI16
I8
sI17
I6
sI18
I21
sI21
I8
sI36
I12
sI31
I44
ssI13
(dp55
I8
I6
sI9
I15
sI10
I8
sI11
I40
sI12
I23
sI14
I8
sI44
I26
sI17
I31
sI18
I8
sI40
I14
sI23
I8
sI26
I8
sI15
I10
sI31
I8
sssI7
(dp56
I1
(dp57
I1
I5
sI2
I1
sI3
I44
sI4
I2
sI5
I44
sI6
I18
sI8
I36
sI9
I7
sI10
I22
sI11
I44
sI12
I21
sI13
I12
sI14
I23
sI15
I6
sI16
I11
sI17
I25
sI18
I27
sI19
I20
sI20
I3
sI21
I44
sI22
I44
sI23
I44
sI24
I17
sI25
I9
sI26
I17
sI27
I17
sI28
I18
sI29
I8
sI30
I44
sI31
I44
sI32
I44
sI33
I8
sI34
I44
sI35
I8
sI36
I44
sI37
I8
sI38
I8
sI39
I30
sI40
I9
sI41
I3
sI42
I3
sI43
I3
sI44
I25
sI45
I3
sI46
I4
ssI2
(dp58
I1
I4
sI2
I3
sI3
I1
sI4
I42
sI5
I4
sI6
I11
sI8
I44
sI9
I23
sI10
I6
sI11
I7
sI12
I36
sI13
I11
sI14
I25
sI15
I11
sI16
I44
sI17
I22
sI18
I13
sI19
I4
sI20
I4
sI21
I18
sI22
I18
sI23
I17
sI24
I9
sI25
I17
sI26
I33
sI27
I8
sI28
I44
sI29
I18
sI30
I8
sI31
I8
sI32
I8
sI33
I44
sI34
I8
sI35
I9
sI36
I14
sI37
I9
sI38
I44
sI39
I8
sI40
I11
sI41
I4
sI42
I44
sI43
I4
sI44
I21
sI45
I4
ssI3
(dp59
I1
I2
sI2
I4
sI3
I2
sI4
I46
sI5
I1
sI6
I10
sI8
I25
sI9
I32
sI10
I34
sI11
I21
sI12
I5
sI13
I18
sI14
I28
sI15
I18
sI16
I6
sI17
I24
sI18
I7
sI21
I17
sI22
I8
sI23
I8
sI24
I18
sI25
I44
sI26
I8
sI27
I9
sI28
I17
sI29
I9
sI30
I39
sI31
I18
sI32
I18
sI33
I9
sI34
I18
sI35
I44
sI36
I8
sI37
I18
sI38
I9
sI39
I9
sI40
I14
sI42
I4
sI44
I37
sI46
I44
ssI4
(dp60
I3
I5
sI4
I18
sI5
I12
sI6
I7
sI8
I33
sI9
I25
sI10
I27
sI11
I6
sI12
I37
sI13
I6
sI14
I44
sI15
I10
sI16
I18
sI17
I44
sI18
I6
sI21
I9
sI22
I9
sI23
I9
sI24
I11
sI25
I14
sI26
I18
sI27
I11
sI28
I8
sI29
I11
sI30
I18
sI31
I9
sI32
I9
sI33
I26
sI34
I9
sI35
I11
sI36
I9
sI37
I44
sI38
I10
sI39
I11
sI40
I15
sI44
I30
ssI5
(dp61
I3
I42
sI4
I5
sI5
I3
sI6
I13
sI8
I26
sI9
I21
sI10
I28
sI11
I22
sI12
I34
sI13
I44
sI14
I6
sI15
I44
sI16
I8
sI17
I7
sI18
I4
sI21
I12
sI22
I17
sI23
I11
sI24
I12
sI25
I8
sI26
I44
sI27
I10
sI28
I11
sI29
I44
sI30
I9
sI31
I11
sI32
I10
sI33
I11
sI34
I17
sI35
I12
sI36
I11
sI37
I11
sI38
I11
sI39
I12
sI42
I12
sI44
I12
ssI6
(dp62
I1
I3
sI3
I45
sI4
I1
sI6
I16
sI8
I29
sI9
I29
sI10
I26
sI11
I15
sI12
I24
sI13
I17
sI14
I40
sI15
I12
sI16
I17
sI17
I33
sI18
I21
sI21
I8
sI22
I10
sI23
I12
sI24
I44
sI25
I11
sI26
I12
sI27
I44
sI28
I9
sI29
I10
sI30
I10
sI31
I12
sI32
I11
sI33
I18
sI34
I10
sI35
I14
sI36
I12
sI37
I12
sI38
I12
sI39
I17
sI40
I17
sI44
I7
sI45
I12
ssI7
(dp63
I3
I12
sI4
I20
sI6
I9
sI8
I30
sI9
I31
sI10
I44
sI11
I30
sI12
I7
sI13
I8
sI14
I8
sI15
I8
sI16
I9
sI17
I27
sI18
I24
sI19
I3
sI20
I19
sI21
I11
sI22
I11
sI23
I14
sI24
I8
sI25
I12
sI26
I9
sI27
I12
sI28
I10
sI29
I12
sI30
I17
sI31
I17
sI32
I12
sI33
I12
sI34
I12
sI35
I17
sI36
I17
sI37
I14
sI38
I17
sI39
I18
sI44
I17
sssI8
(dp64
I1
(dp65
I1
I4
sI2
I3
sI3
I1
sI4
I8
sI5
I4
sI6
I13
sI7
I12
sI9
I16
sI10
I34
sI11
I40
sI12
I16
sI13
I44
sI14
I23
sI15
I44
sI16
I44
sI17
I40
sI18
I13
sI21
I9
sI22
I12
sI23
I44
sI24
I12
sI25
I14
sI26
I9
sI27
I44
sI28
I10
sI29
I11
sI30
I11
sI31
I12
sI32
I17
sI33
I18
sI34
I44
sI35
I9
sI36
I17
sI37
I18
sI38
I9
sI39
I44
sI40
I15
sI41
I3
sI43
I3
sI44
I5
ssI2
(dp66
I1
I2
sI2
I4
sI3
I2
sI4
I12
sI5
I1
sI6
I10
sI7
I18
sI9
I15
sI10
I44
sI11
I22
sI12
I29
sI13
I6
sI14
I9
sI15
I10
sI16
I8
sI17
I33
sI18
I39
sI21
I18
sI22
I44
sI23
I9
sI25
I44
sI26
I44
sI29
I10
sI30
I44
sI31
I17
sI33
I26
sI34
I10
sI38
I18
sI39
I30
sI40
I14
sI44
I16
ssI3
(dp67
I1
I5
sI2
I1
sI3
I5
sI4
I2
sI5
I12
sI6
I18
sI9
I29
sI10
I22
sI11
I16
sI12
I35
sI13
I9
sI14
I8
sI15
I6
sI16
I10
sI17
I28
sI18
I14
sI21
I44
sI22
I14
sI23
I14
sI28
I44
sI29
I44
sI30
I12
sI33
I44
sI34
I17
sI35
I14
sI44
I15
ssI4
(dp68
I3
I19
sI4
I18
sI6
I44
sI9
I32
sI10
I16
sI11
I30
sI12
I6
sI13
I10
sI14
I22
sI15
I40
sI16
I11
sI17
I24
sI18
I30
sI19
I4
sI20
I19
sI22
I10
sI24
I44
sI29
I18
sI30
I8
sI32
I44
sI34
I18
sI40
I9
sI42
I4
sI44
I42
ssI5
(dp69
I3
I20
sI4
I5
sI5
I44
sI6
I15
sI9
I27
sI10
I30
sI11
I14
sI12
I45
sI14
I12
sI15
I11
sI16
I6
sI17
I30
sI18
I35
sI20
I4
sI26
I33
sI27
I12
sI30
I39
sI33
I8
sI35
I44
sI39
I9
sI44
I26
sI45
I4
ssI6
(dp70
I36
I44
sI6
I14
sI9
I26
sI10
I27
sI11
I13
sI12
I23
sI13
I12
sI14
I28
sI44
I13
sI16
I9
sI17
I23
sI18
I36
sI23
I8
sI26
I10
sI27
I11
sI28
I18
sI30
I18
ssI7
(dp71
I32
I8
sI3
I41
sI4
I42
sI38
I17
sI6
I17
sI7
I6
sI9
I25
sI10
I32
sI11
I38
sI12
I4
sI14
I25
sI44
I23
sI16
I12
sI17
I10
sI18
I7
sI41
I4
sI23
I18
sI25
I17
sI42
I44
ssI8
(dp72
I3
I43
sI4
I46
sI5
I3
sI6
I16
sI7
I17
sI9
I30
sI10
I6
sI11
I7
sI12
I5
sI14
I44
sI44
I25
sI16
I17
sI17
I26
sI18
I16
sI46
I44
sI43
I4
sI25
I18
sI26
I8
sI30
I17
ssI9
(dp73
I32
I18
sI3
I4
sI4
I44
sI38
I8
sI9
I23
sI10
I28
sI11
I21
sI12
I42
sI14
I35
sI44
I32
sI17
I38
sI18
I26
sI35
I17
sI21
I17
sI23
I17
sI26
I17
sI28
I14
sI42
I3
ssI10
(dp74
I32
I10
sI38
I44
sI6
I11
sI39
I8
sI9
I38
sI10
I13
sI11
I17
sI12
I32
sI13
I18
sI14
I6
sI44
I14
sI17
I39
sI18
I27
sI27
I17
ssI11
(dp75
I1
I3
sI3
I44
sI4
I1
sI7
I44
sI9
I7
sI10
I29
sI11
I24
sI12
I3
sI14
I18
sI44
I35
sI17
I36
sI18
I25
sI35
I11
sI24
I18
sI25
I8
sI29
I17
sI36
I14
ssI12
(dp76
I37
I17
sI38
I11
sI9
I10
sI10
I38
sI11
I31
sI12
I21
sI14
I37
sI44
I30
sI17
I15
sI18
I21
sI21
I8
sI15
I18
sI30
I10
sI31
I18
ssI13
(dp77
I36
I11
sI37
I44
sI38
I10
sI9
I14
sI10
I17
sI11
I44
sI12
I38
sI14
I36
sI44
I28
sI16
I18
sI17
I16
sI18
I37
sI28
I8
ssI14
(dp78
I37
I14
sI6
I7
sI7
I9
sI40
I17
sI9
I28
sI10
I8
sI11
I10
sI12
I37
sI14
I40
sI44
I6
sI17
I22
sI18
I23
sI22
I18
sI23
I11
sI28
I11
ssI15
(dp79
I32
I11
sI33
I11
sI15
I8
sI9
I33
sI10
I26
sI11
I15
sI12
I14
sI14
I17
sI44
I29
sI17
I27
sI18
I32
sI26
I18
sI27
I18
sI29
I9
ssI16
(dp80
I36
I9
sI39
I11
sI9
I39
sI10
I18
sI11
I29
sI12
I15
sI44
I36
sI17
I29
sI18
I24
sI24
I11
sI15
I17
sI29
I8
ssI17
(dp81
I40
I11
sI9
I40
sI10
I9
sI11
I8
sI12
I13
sI13
I17
sI14
I11
sI44
I31
sI17
I14
sI18
I10
sI31
I9
ssI18
(dp82
I9
I21
sI11
I26
sI12
I27
sI44
I11
sI17
I25
sI18
I31
sI21
I12
sI25
I9
sI26
I12
sI27
I8
sI31
I11
ssI19
(dp83
I32
I9
sI15
I12
sI9
I12
sI10
I15
sI11
I23
sI12
I8
sI44
I27
sI17
I32
sI18
I11
sI23
I12
sI27
I10
ssI20
(dp84
I36
I18
sI9
I24
sI10
I12
sI11
I25
sI12
I36
sI44
I10
sI17
I31
sI18
I15
sI24
I17
sI25
I12
sI15
I9
sI31
I8
ssI21
(dp85
I32
I12
sI3
I42
sI4
I20
sI39
I18
sI9
I17
sI42
I12
sI11
I32
sI12
I39
sI46
I4
sI44
I46
sI17
I8
sI18
I22
sI19
I20
sI20
I3
sI22
I9
ssI22
(dp86
I33
I12
sI34
I9
sI44
I9
sI11
I33
sI12
I44
sI17
I34
sI18
I8
sI9
I18
ssI23
(dp87
I35
I12
sI9
I31
sI11
I35
sI12
I30
sI44
I24
sI17
I9
sI18
I44
sI24
I8
sI30
I9
sI31
I44
ssI24
(dp88
I33
I9
sI36
I12
sI6
I12
sI9
I44
sI11
I36
sI12
I33
sI44
I8
sI17
I6
sI18
I6
ssI25
(dp89
I3
I45
sI4
I19
sI6
I8
sI39
I12
sI9
I6
sI11
I39
sI12
I24
sI45
I12
sI13
I11
sI17
I13
sI18
I4
sI19
I3
sI24
I9
sI44
I4
ssI26
(dp90
I3
I12
sI4
I45
sI37
I11
sI9
I13
sI11
I12
sI12
I9
sI45
I3
sI13
I8
sI17
I37
sI18
I28
sI28
I12
sI44
I3
ssI27
(dp91
I37
I12
sI9
I22
sI11
I18
sI12
I28
sI44
I37
sI17
I21
sI18
I9
sI21
I11
sI22
I8
sI28
I17
ssI28
(dp92
I35
I8
sI6
I9
sI9
I35
sI10
I11
sI11
I6
sI12
I10
sI44
I22
sI17
I11
sI18
I29
sI22
I17
sI29
I12
ssI29
(dp93
I35
I18
sI36
I8
sI38
I12
sI39
I17
sI9
I36
sI11
I28
sI12
I22
sI44
I39
sI17
I35
sI18
I38
sI22
I11
sI28
I9
ssI30
(dp94
I34
I12
sI37
I8
sI9
I37
sI11
I27
sI12
I26
sI44
I34
sI17
I18
sI18
I34
sI26
I11
sI27
I9
ssI31
(dp95
I34
I8
sI37
I9
sI9
I34
sI11
I37
sI12
I25
sI44
I12
sI17
I44
sI18
I12
sI25
I11
ssI32
(dp96
I33
I17
sI7
I11
sI9
I8
sI11
I9
sI44
I17
sI12
I7
sI17
I7
sI18
I33
sssI9
(dp97
I1
(dp98
I1
I5
sI2
I1
sI3
I1
sI4
I2
sI5
I44
sI6
I7
sI7
I9
sI8
I6
sI10
I16
sI11
I6
sI12
I16
sI13
I6
sI14
I22
sI15
I8
sI16
I6
sI17
I10
sI18
I13
sI21
I12
sI22
I10
sI23
I17
sI24
I17
sI25
I12
sI26
I10
sI27
I12
sI28
I11
sI29
I8
sI30
I11
sI31
I11
sI32
I12
sI33
I11
sI34
I8
sI35
I8
sI36
I8
sI37
I8
sI38
I18
sI39
I11
sI40
I11
sI41
I3
sI42
I3
sI43
I3
sI44
I13
ssI2
(dp99
I1
I4
sI2
I4
sI3
I2
sI4
I8
sI5
I4
sI6
I8
sI7
I18
sI8
I14
sI10
I32
sI11
I16
sI12
I23
sI13
I8
sI14
I9
sI15
I44
sI16
I10
sI17
I40
sI18
I39
sI21
I18
sI22
I8
sI23
I8
sI25
I14
sI26
I11
sI28
I18
sI29
I44
sI30
I44
sI31
I44
sI32
I8
sI37
I14
sI38
I44
sI39
I30
sI40
I15
sI42
I4
sI44
I5
ssI3
(dp100
I1
I2
sI2
I3
sI3
I19
sI4
I42
sI5
I1
sI6
I9
sI7
I44
sI8
I28
sI10
I30
sI11
I30
sI12
I22
sI13
I10
sI14
I6
sI15
I6
sI16
I11
sI17
I33
sI18
I35
sI19
I4
sI20
I19
sI21
I44
sI22
I11
sI25
I44
sI26
I44
sI28
I10
sI30
I18
sI32
I44
sI33
I26
sI35
I44
sI39
I44
sI42
I44
sI44
I15
ssI4
(dp101
I33
I8
sI36
I11
sI6
I10
sI8
I15
sI44
I16
sI10
I13
sI11
I15
sI12
I29
sI13
I18
sI14
I36
sI15
I40
sI16
I8
sI17
I26
sI18
I23
sI40
I9
sI23
I11
sI26
I33
sI29
I10
sI30
I17
ssI5
(dp102
I6
I15
sI8
I13
sI44
I26
sI10
I8
sI11
I40
sI12
I26
sI13
I9
sI14
I8
sI15
I11
sI16
I12
sI17
I23
sI18
I14
sI40
I14
sI23
I14
sI26
I8
ssI6
(dp103
I36
I14
sI6
I16
sI8
I16
sI44
I28
sI10
I27
sI11
I22
sI12
I25
sI14
I28
sI15
I10
sI16
I9
sI17
I36
sI18
I30
sI22
I44
sI25
I11
sI27
I11
sI28
I8
sI30
I8
ssI7
(dp104
I32
I11
sI34
I10
sI6
I12
sI7
I11
sI8
I34
sI44
I14
sI10
I6
sI11
I28
sI12
I7
sI14
I11
sI16
I44
sI17
I14
sI18
I32
sI28
I9
ssI8
(dp105
I32
I10
sI34
I44
sI3
I20
sI4
I12
sI6
I14
sI8
I4
sI44
I35
sI10
I34
sI11
I27
sI12
I32
sI14
I12
sI15
I18
sI17
I15
sI18
I24
sI35
I11
sI20
I4
sI24
I11
sI27
I9
ssI9
(dp106
I36
I44
sI38
I10
sI6
I13
sI8
I22
sI44
I29
sI10
I44
sI11
I29
sI12
I38
sI13
I44
sI14
I23
sI17
I28
sI18
I36
sI22
I12
sI23
I44
sI28
I44
sI29
I9
ssI10
(dp107
I35
I14
sI36
I9
sI37
I44
sI38
I11
sI8
I30
sI44
I36
sI10
I38
sI11
I8
sI12
I35
sI14
I44
sI17
I24
sI18
I37
sI24
I44
sI30
I12
ssI11
(dp108
I38
I8
sI6
I44
sI8
I26
sI44
I30
sI10
I22
sI11
I14
sI12
I6
sI14
I25
sI17
I38
sI18
I44
sI22
I14
sI25
I17
sI26
I9
sI30
I10
ssI12
(dp109
I3
I41
sI4
I46
sI39
I8
sI8
I23
sI44
I22
sI10
I11
sI11
I13
sI12
I45
sI45
I4
sI14
I35
sI13
I12
sI17
I39
sI18
I25
sI35
I17
sI46
I44
sI22
I17
sI41
I4
sI23
I9
sI25
I8
ssI13
(dp110
I35
I9
sI37
I17
sI8
I35
sI44
I24
sI10
I28
sI11
I10
sI12
I11
sI14
I37
sI17
I31
sI18
I31
sI24
I8
sI28
I14
sI31
I8
ssI14
(dp111
I38
I9
sI8
I38
sI44
I11
sI10
I29
sI11
I26
sI12
I10
sI14
I18
sI17
I8
sI18
I11
sI26
I12
sI29
I17
ssI15
(dp112
I37
I9
sI6
I11
sI7
I6
sI8
I24
sI44
I27
sI10
I15
sI11
I37
sI12
I37
sI14
I40
sI15
I12
sI17
I6
sI18
I7
sI40
I17
sI24
I12
sI27
I10
ssI16
(dp113
I3
I5
sI4
I5
sI5
I12
sI8
I31
sI44
I10
sI10
I12
sI11
I9
sI12
I14
sI13
I11
sI14
I17
sI17
I13
sI18
I4
sI31
I12
ssI17
(dp114
I1
I3
sI3
I42
sI4
I1
sI39
I9
sI8
I12
sI44
I42
sI10
I17
sI11
I23
sI12
I15
sI15
I17
sI17
I30
sI18
I28
sI23
I12
sI28
I12
sI42
I12
sI30
I39
ssI18
(dp115
I3
I45
sI4
I20
sI8
I25
sI44
I46
sI10
I26
sI11
I25
sI12
I13
sI45
I12
sI46
I4
sI13
I17
sI17
I25
sI18
I29
sI19
I20
sI20
I3
sI25
I9
sI26
I18
sI29
I12
ssI19
(dp116
I32
I9
sI3
I12
sI4
I19
sI38
I12
sI8
I27
sI44
I4
sI11
I32
sI12
I28
sI17
I32
sI18
I38
sI19
I3
sI27
I44
sI28
I17
ssI20
(dp117
I34
I9
sI37
I12
sI38
I17
sI8
I29
sI44
I37
sI11
I38
sI12
I31
sI17
I34
sI18
I21
sI21
I8
sI29
I11
sI31
I17
ssI21
(dp118
I32
I17
sI33
I12
sI39
I17
sI8
I32
sI44
I39
sI11
I33
sI12
I17
sI17
I9
sI18
I8
ssI22
(dp119
I33
I44
sI34
I17
sI35
I12
sI36
I18
sI8
I33
sI44
I34
sI10
I9
sI11
I35
sI12
I36
sI16
I18
sI17
I16
sI18
I10
ssI23
(dp120
I39
I18
sI8
I39
sI12
I39
sI11
I44
sI44
I17
sI15
I9
sI17
I22
sI18
I15
sI22
I18
ssI24
(dp121
I34
I18
sI8
I11
sI12
I34
sI11
I24
sI44
I8
sI17
I27
sI18
I22
sI22
I9
sI24
I18
sI27
I18
ssI25
(dp122
I6
I18
sI7
I17
sI8
I44
sI12
I18
sI11
I7
sI44
I6
sI17
I29
sI18
I9
sI29
I18
ssI26
(dp123
I34
I12
sI3
I43
sI4
I44
sI8
I36
sI44
I31
sI11
I21
sI12
I4
sI17
I35
sI18
I34
sI35
I18
sI21
I17
sI43
I4
sI36
I17
sI31
I9
ssI27
(dp124
I3
I44
sI4
I45
sI5
I3
sI8
I17
sI44
I9
sI11
I17
sI12
I5
sI45
I3
sI17
I18
sI18
I12
ssI28
(dp125
I6
I17
sI8
I21
sI12
I27
sI11
I31
sI44
I12
sI17
I44
sI18
I6
sI21
I9
sI27
I8
sI31
I18
ssI29
(dp126
I3
I4
sI4
I18
sI37
I11
sI8
I9
sI44
I3
sI11
I36
sI12
I8
sI16
I17
sI17
I37
sI18
I16
sI36
I12
ssI30
(dp127
I39
I12
sI8
I10
sI12
I30
sI10
I18
sI11
I39
sI44
I23
sI17
I21
sI18
I26
sI21
I11
sI23
I18
sI26
I17
sI30
I9
ssI31
(dp128
I33
I9
sI37
I18
sI8
I37
sI44
I25
sI11
I12
sI12
I33
sI17
I11
sI18
I27
sI25
I18
sI27
I17
ssI32
(dp129
I32
I18
sI33
I17
sI7
I12
sI8
I18
sI44
I32
sI11
I18
sI12
I24
sI17
I7
sI18
I33
sI24
I9
ssI33
(dp130
I33
I18
sI18
I17
sI12
I9
sI17
I12
sI44
I33
sssI10
(dp131
I1
(dp132
I1
I4
sI3
I1
sI4
I12
sI5
I1
sI6
I13
sI7
I11
sI8
I25
sI9
I16
sI11
I40
sI12
I16
sI13
I10
sI14
I23
sI15
I44
sI16
I6
sI17
I40
sI18
I13
sI21
I9
sI22
I8
sI23
I44
sI24
I17
sI25
I44
sI26
I9
sI27
I9
sI28
I9
sI29
I12
sI30
I8
sI31
I9
sI32
I8
sI33
I17
sI34
I8
sI35
I8
sI36
I8
sI37
I8
sI38
I9
sI39
I12
sI40
I15
sI41
I3
sI42
I4
sI43
I3
sI44
I13
ssI2
(dp133
I1
I5
sI2
I1
sI3
I5
sI4
I2
sI5
I12
sI6
I8
sI7
I12
sI8
I27
sI9
I29
sI11
I22
sI12
I35
sI13
I6
sI14
I22
sI15
I40
sI16
I8
sI17
I33
sI18
I39
sI21
I11
sI22
I10
sI23
I9
sI24
I18
sI25
I8
sI26
I44
sI27
I44
sI28
I12
sI29
I44
sI30
I44
sI31
I11
sI32
I12
sI33
I26
sI34
I12
sI35
I14
sI36
I14
sI37
I9
sI38
I11
sI39
I30
sI40
I9
sI44
I5
ssI3
(dp134
I1
I2
sI2
I3
sI3
I42
sI4
I1
sI5
I4
sI6
I16
sI7
I6
sI8
I4
sI9
I32
sI11
I30
sI12
I29
sI13
I8
sI14
I9
sI15
I12
sI16
I12
sI17
I28
sI18
I7
sI21
I17
sI22
I11
sI25
I11
sI26
I11
sI27
I11
sI28
I44
sI29
I10
sI30
I18
sI31
I17
sI32
I44
sI33
I18
sI34
I17
sI35
I9
sI36
I18
sI37
I11
sI38
I12
sI39
I17
sI40
I14
sI42
I12
sI44
I42
ssI4
(dp135
I1
I3
sI2
I4
sI3
I2
sI4
I8
sI6
I7
sI7
I9
sI8
I22
sI9
I27
sI11
I14
sI12
I32
sI13
I9
sI14
I12
sI15
I17
sI16
I9
sI17
I24
sI18
I35
sI21
I18
sI22
I12
sI24
I44
sI25
I18
sI26
I17
sI27
I12
sI28
I14
sI29
I17
sI30
I39
sI31
I18
sI32
I10
sI34
I18
sI35
I44
sI37
I12
sI38
I18
sI39
I9
sI44
I46
sI46
I4
ssI5
(dp136
I3
I45
sI4
I20
sI6
I15
sI7
I18
sI8
I30
sI9
I25
sI11
I13
sI12
I38
sI13
I12
sI14
I6
sI15
I11
sI16
I11
sI17
I23
sI18
I36
sI19
I20
sI20
I3
sI22
I14
sI23
I14
sI25
I14
sI26
I18
sI27
I17
sI28
I17
sI29
I18
sI30
I12
sI32
I18
sI34
I44
sI35
I18
sI36
I44
sI37
I14
sI38
I10
sI39
I18
sI44
I14
sI45
I12
ssI6
(dp137
I3
I12
sI4
I19
sI6
I9
sI8
I24
sI9
I30
sI11
I26
sI12
I6
sI13
I11
sI14
I8
sI15
I6
sI16
I17
sI17
I10
sI18
I14
sI19
I3
sI20
I19
sI22
I17
sI24
I12
sI26
I12
sI27
I18
sI30
I17
sI39
I44
sI44
I15
ssI7
(dp138
I3
I19
sI4
I5
sI5
I44
sI6
I11
sI8
I31
sI9
I38
sI11
I23
sI12
I30
sI13
I17
sI14
I36
sI16
I44
sI17
I26
sI18
I30
sI19
I4
sI22
I18
sI23
I12
sI26
I33
sI30
I10
sI31
I12
sI33
I8
sI36
I11
sI38
I44
sI44
I30
ssI8
(dp139
I33
I9
sI38
I8
sI6
I12
sI7
I44
sI8
I12
sI9
I7
sI11
I25
sI12
I33
sI13
I18
sI14
I44
sI44
I27
sI17
I38
sI18
I25
sI22
I44
sI25
I12
sI27
I10
sI30
I11
ssI9
(dp140
I32
I17
sI3
I20
sI4
I42
sI37
I44
sI6
I14
sI8
I32
sI9
I31
sI42
I44
sI11
I32
sI12
I45
sI45
I4
sI14
I25
sI13
I44
sI17
I44
sI18
I37
sI20
I4
sI25
I17
sI44
I10
sI31
I44
ssI10
(dp141
I33
I12
sI3
I41
sI4
I46
sI6
I17
sI8
I36
sI9
I15
sI11
I33
sI12
I4
sI14
I35
sI44
I6
sI17
I30
sI18
I6
sI35
I17
sI46
I44
sI41
I4
sI36
I17
sI15
I10
sI30
I9
ssI11
(dp142
I3
I43
sI4
I18
sI37
I17
sI6
I44
sI8
I17
sI9
I26
sI11
I35
sI12
I5
sI14
I37
sI44
I4
sI17
I25
sI18
I21
sI35
I12
sI21
I8
sI43
I4
sI25
I9
sI26
I10
sI5
I3
ssI12
(dp143
I3
I4
sI4
I44
sI37
I18
sI38
I17
sI39
I8
sI8
I37
sI9
I10
sI42
I3
sI11
I38
sI12
I42
sI14
I40
sI44
I23
sI17
I39
sI18
I15
sI40
I17
sI23
I18
sI6
I18
sI15
I9
ssI13
(dp144
I33
I44
sI35
I11
sI36
I12
sI8
I33
sI9
I23
sI11
I36
sI12
I10
sI14
I28
sI44
I35
sI17
I36
sI18
I44
sI23
I17
sI28
I18
ssI14
(dp145
I3
I44
sI4
I45
sI8
I29
sI9
I14
sI11
I16
sI12
I3
sI45
I3
sI14
I11
sI44
I16
sI16
I10
sI17
I31
sI18
I22
sI22
I9
sI29
I11
sI31
I8
ssI15
(dp146
I32
I9
sI8
I11
sI9
I28
sI11
I10
sI12
I23
sI14
I17
sI44
I26
sI17
I32
sI18
I9
sI23
I8
sI26
I8
sI28
I11
ssI16
(dp147
I33
I11
sI7
I17
sI8
I18
sI9
I33
sI11
I7
sI12
I24
sI14
I18
sI44
I28
sI17
I8
sI18
I10
sI24
I9
sI28
I8
ssI17
(dp148
I34
I9
sI6
I10
sI39
I11
sI8
I6
sI9
I39
sI11
I24
sI12
I9
sI44
I24
sI17
I34
sI18
I8
sI24
I8
ssI18
(dp149
I8
I28
sI9
I40
sI11
I44
sI12
I21
sI44
I8
sI17
I15
sI18
I23
sI21
I44
sI40
I11
sI23
I11
sI15
I18
sI28
I10
ssI19
(dp150
I32
I11
sI34
I10
sI8
I34
sI9
I21
sI11
I15
sI12
I27
sI15
I8
sI44
I29
sI17
I9
sI18
I32
sI21
I12
sI27
I8
sI29
I9
ssI20
(dp151
I36
I9
sI8
I10
sI9
I12
sI11
I29
sI12
I8
sI44
I36
sI16
I18
sI17
I16
sI18
I24
sI24
I11
sI29
I8
sssI11
(dp152
I1
(dp153
I1
I4
sI3
I1
sI4
I12
sI6
I10
sI7
I17
sI8
I6
sI9
I16
sI10
I16
sI12
I16
sI13
I10
sI14
I22
sI15
I44
sI16
I11
sI17
I40
sI18
I13
sI21
I17
sI22
I10
sI23
I8
sI24
I18
sI25
I12
sI26
I33
sI27
I9
sI28
I9
sI29
I8
sI30
I18
sI31
I17
sI32
I12
sI33
I8
sI34
I12
sI35
I12
sI36
I12
sI37
I9
sI38
I17
sI39
I12
sI40
I15
sI41
I3
sI43
I3
sI44
I13
ssI2
(dp154
I6
I15
sI7
I18
sI8
I32
sI9
I15
sI10
I34
sI12
I29
sI13
I6
sI14
I6
sI15
I11
sI16
I6
sI17
I33
sI18
I39
sI21
I18
sI22
I12
sI23
I12
sI25
I17
sI26
I44
sI28
I10
sI29
I10
sI30
I44
sI31
I18
sI32
I17
sI33
I26
sI34
I44
sI35
I18
sI37
I44
sI38
I18
sI39
I30
sI40
I14
sI44
I14
ssI3
(dp155
I6
I18
sI8
I36
sI9
I29
sI10
I32
sI12
I35
sI13
I12
sI14
I28
sI15
I6
sI16
I8
sI17
I23
sI18
I23
sI22
I44
sI23
I11
sI25
I44
sI26
I12
sI28
I18
sI29
I44
sI32
I8
sI33
I12
sI34
I18
sI35
I14
sI36
I17
sI39
I18
sI44
I15
ssI4
(dp156
I32
I11
sI33
I18
sI2
I4
sI3
I2
sI4
I18
sI5
I4
sI6
I13
sI8
I17
sI9
I32
sI10
I8
sI12
I6
sI13
I44
sI14
I18
sI44
I5
sI16
I10
sI17
I36
sI18
I32
sI23
I14
sI36
I14
sI15
I8
ssI5
(dp157
I1
I5
sI2
I1
sI3
I19
sI4
I2
sI5
I44
sI6
I7
sI7
I9
sI8
I37
sI9
I27
sI10
I44
sI12
I45
sI14
I8
sI15
I18
sI16
I44
sI17
I15
sI18
I24
sI19
I4
sI20
I19
sI23
I18
sI24
I11
sI27
I12
sI32
I44
sI37
I18
sI44
I23
sI45
I4
ssI6
(dp158
I3
I20
sI4
I42
sI6
I14
sI8
I18
sI9
I26
sI10
I22
sI12
I4
sI14
I25
sI44
I25
sI16
I18
sI17
I16
sI18
I31
sI20
I4
sI22
I14
sI25
I18
sI26
I10
sI15
I10
sI42
I44
sI31
I11
ssI7
(dp159
I1
I2
sI2
I3
sI3
I41
sI4
I46
sI5
I1
sI6
I44
sI8
I25
sI9
I25
sI10
I28
sI12
I5
sI14
I35
sI44
I30
sI17
I22
sI18
I11
sI35
I17
sI46
I44
sI22
I18
sI41
I4
sI25
I14
sI28
I14
sI30
I10
ssI8
(dp160
I3
I43
sI4
I44
sI6
I9
sI29
I17
sI8
I27
sI9
I30
sI42
I3
sI43
I4
sI12
I42
sI14
I36
sI44
I6
sI17
I14
sI18
I35
sI35
I44
sI36
I11
sI27
I44
sI10
I29
sI30
I17
ssI9
(dp161
I32
I10
sI3
I4
sI4
I8
sI6
I11
sI8
I14
sI9
I23
sI10
I13
sI12
I32
sI13
I18
sI14
I9
sI44
I42
sI17
I6
sI18
I14
sI23
I17
sI42
I4
ssI10
(dp162
I3
I44
sI4
I5
sI5
I3
sI38
I44
sI15
I40
sI8
I15
sI9
I38
sI10
I26
sI12
I3
sI14
I12
sI44
I35
sI17
I27
sI18
I30
sI35
I11
sI40
I9
sI26
I18
sI27
I18
sI30
I8
ssI11
(dp163
I7
I44
sI8
I13
sI9
I7
sI10
I18
sI12
I23
sI13
I9
sI14
I23
sI44
I11
sI17
I28
sI18
I25
sI23
I44
sI25
I8
sI28
I44
ssI12
(dp164
I8
I16
sI9
I10
sI10
I30
sI12
I27
sI14
I44
sI44
I16
sI16
I9
sI17
I10
sI18
I21
sI21
I8
sI27
I8
sI30
I11
ssI13
(dp165
I36
I44
sI8
I26
sI9
I14
sI12
I8
sI14
I11
sI44
I29
sI17
I26
sI18
I36
sI26
I9
sI29
I9
ssI14
(dp166
I36
I9
sI37
I17
sI8
I23
sI9
I28
sI10
I9
sI12
I21
sI14
I37
sI44
I36
sI17
I24
sI18
I10
sI21
I44
sI23
I9
sI24
I44
sI28
I11
ssI15
(dp167
I33
I11
sI35
I9
sI38
I10
sI39
I9
sI8
I35
sI9
I33
sI10
I17
sI12
I38
sI44
I26
sI17
I30
sI18
I15
sI26
I8
sI15
I9
sI30
I39
ssI16
(dp168
I37
I14
sI38
I9
sI39
I11
sI8
I38
sI9
I39
sI10
I6
sI12
I37
sI14
I40
sI44
I27
sI16
I12
sI17
I25
sI18
I37
sI40
I17
sI25
I9
sI6
I16
sI27
I10
ssI17
(dp169
I36
I18
sI38
I8
sI8
I21
sI9
I40
sI44
I28
sI12
I36
sI17
I38
sI18
I22
sI21
I9
sI22
I9
sI40
I11
sI28
I8
ssI18
(dp170
I39
I8
sI8
I9
sI9
I11
sI12
I39
sI44
I31
sI17
I39
sI18
I9
sI31
I9
ssI19
(dp171
I33
I44
sI6
I12
sI7
I6
sI8
I33
sI9
I21
sI10
I15
sI12
I14
sI13
I11
sI14
I17
sI44
I10
sI17
I13
sI18
I7
sI21
I12
sI15
I12
ssI20
(dp172
I1
I3
sI3
I5
sI4
I1
sI37
I11
sI39
I44
sI8
I39
sI9
I12
sI12
I15
sI46
I4
sI44
I46
sI17
I37
sI18
I4
sI15
I17
sI5
I12
ssI21
(dp173
I3
I42
sI4
I20
sI8
I44
sI9
I24
sI42
I12
sI12
I13
sI13
I17
sI44
I4
sI17
I21
sI18
I28
sI19
I20
sI20
I3
sI21
I11
sI24
I17
sI28
I12
ssI22
(dp174
I3
I45
sI4
I19
sI8
I28
sI9
I17
sI10
I12
sI12
I28
sI45
I12
sI44
I3
sI17
I11
sI18
I29
sI19
I3
sI28
I17
sI29
I12
ssI23
(dp175
I3
I12
sI4
I45
sI37
I12
sI8
I4
sI9
I18
sI10
I27
sI12
I10
sI45
I3
sI44
I37
sI17
I31
sI18
I8
sI27
I11
sI31
I8
ssI24
(dp176
I8
I22
sI9
I31
sI12
I22
sI44
I24
sI17
I8
sI18
I44
sI22
I11
sI24
I8
sI31
I44
ssI25
(dp177
I32
I9
sI6
I17
sI8
I30
sI44
I8
sI12
I26
sI17
I32
sI18
I6
sI9
I44
sI26
I11
sI30
I12
ssI26
(dp178
I34
I9
sI6
I8
sI8
I24
sI9
I6
sI12
I25
sI44
I22
sI16
I17
sI17
I34
sI18
I16
sI22
I17
sI24
I12
sI25
I11
ssI27
(dp179
I39
I17
sI8
I31
sI9
I13
sI7
I11
sI44
I39
sI13
I8
sI12
I7
sI17
I9
sI18
I26
sI26
I17
sI31
I12
ssI28
(dp180
I34
I17
sI38
I12
sI8
I12
sI9
I22
sI12
I11
sI44
I34
sI17
I29
sI18
I38
sI22
I8
sI29
I18
ssI29
(dp181
I34
I10
sI35
I8
sI38
I11
sI8
I34
sI9
I35
sI10
I38
sI12
I44
sI44
I9
sI17
I35
sI18
I34
ssI30
(dp182
I36
I8
sI8
I10
sI9
I36
sI10
I11
sI12
I30
sI44
I17
sI17
I18
sI18
I12
sI30
I9
ssI31
(dp183
I33
I9
sI37
I8
sI8
I29
sI12
I33
sI44
I12
sI17
I44
sI18
I27
sI9
I37
sI27
I17
sI29
I11
ssI32
(dp184
I32
I18
sI33
I17
sI34
I8
sI7
I12
sI8
I11
sI9
I34
sI12
I24
sI44
I32
sI17
I7
sI18
I33
sI24
I9
sssI12
(dp185
I1
(dp186
I1
I5
sI2
I1
sI3
I1
sI4
I2
sI5
I44
sI6
I10
sI7
I11
sI8
I6
sI9
I15
sI10
I16
sI11
I40
sI13
I10
sI14
I12
sI15
I10
sI16
I11
sI17
I10
sI18
I23
sI21
I17
sI22
I8
sI23
I11
sI24
I9
sI25
I11
sI26
I10
sI27
I8
sI28
I8
sI29
I10
sI30
I39
sI31
I11
sI32
I10
sI33
I9
sI34
I18
sI35
I14
sI36
I18
sI37
I14
sI38
I10
sI39
I9
sI40
I14
sI41
I3
sI42
I3
sI43
I3
sI44
I13
sI45
I4
ssI2
(dp187
I1
I2
sI2
I4
sI3
I2
sI4
I42
sI5
I1
sI6
I15
sI8
I28
sI9
I25
sI10
I30
sI11
I13
sI13
I12
sI14
I6
sI15
I11
sI16
I6
sI17
I23
sI18
I32
sI21
I44
sI22
I10
sI23
I14
sI25
I14
sI26
I11
sI27
I17
sI28
I10
sI30
I11
sI31
I17
sI32
I11
sI33
I26
sI39
I17
sI40
I17
sI42
I44
sI44
I15
ssI3
(dp188
I1
I4
sI2
I3
sI3
I19
sI4
I18
sI5
I4
sI6
I8
sI8
I14
sI9
I26
sI10
I13
sI11
I26
sI13
I18
sI14
I28
sI15
I6
sI16
I10
sI17
I36
sI18
I24
sI19
I4
sI20
I19
sI22
I11
sI23
I8
sI24
I11
sI25
I18
sI26
I12
sI28
I18
sI30
I10
sI36
I14
sI39
I18
sI44
I5
ssI4
(dp189
I33
I8
sI34
I10
sI3
I20
sI4
I8
sI6
I16
sI8
I34
sI9
I6
sI10
I6
sI11
I16
sI44
I42
sI13
I17
sI14
I8
sI15
I17
sI16
I12
sI17
I33
sI18
I14
sI20
I4
sI26
I33
sI28
I17
sI42
I4
ssI5
(dp190
I32
I8
sI3
I41
sI4
I12
sI38
I8
sI6
I14
sI39
I30
sI8
I4
sI41
I4
sI10
I32
sI11
I15
sI44
I23
sI13
I8
sI14
I9
sI15
I8
sI17
I38
sI18
I39
sI9
I13
sI23
I18
sI26
I17
sI30
I8
ssI6
(dp191
I3
I43
sI4
I46
sI6
I13
sI39
I8
sI8
I22
sI9
I22
sI10
I8
sI11
I29
sI44
I25
sI13
I44
sI14
I22
sI43
I4
sI18
I25
sI17
I39
sI22
I12
sI46
I44
sI25
I8
sI29
I8
ssI7
(dp192
I32
I18
sI3
I4
sI4
I44
sI6
I7
sI7
I9
sI8
I30
sI9
I35
sI10
I27
sI11
I6
sI44
I32
sI14
I36
sI17
I31
sI18
I31
sI35
I8
sI36
I11
sI27
I11
sI30
I12
sI31
I8
ssI8
(dp193
I33
I18
sI3
I44
sI4
I5
sI38
I11
sI6
I11
sI8
I24
sI9
I36
sI10
I38
sI11
I28
sI44
I33
sI14
I23
sI17
I6
sI18
I11
sI23
I44
sI24
I12
sI36
I8
sI28
I9
sI5
I3
ssI9
(dp194
I6
I18
sI8
I15
sI9
I28
sI10
I9
sI11
I23
sI44
I16
sI13
I11
sI14
I25
sI15
I40
sI16
I8
sI17
I13
sI18
I10
sI40
I9
sI23
I12
sI25
I17
sI28
I11
ssI10
(dp195
I33
I11
sI35
I17
sI8
I13
sI9
I33
sI10
I11
sI11
I25
sI44
I26
sI13
I9
sI14
I35
sI15
I9
sI17
I30
sI18
I15
sI25
I12
sI26
I8
sI30
I9
ssI11
(dp196
I32
I12
sI34
I44
sI6
I9
sI39
I11
sI8
I16
sI9
I39
sI10
I34
sI11
I32
sI44
I6
sI16
I9
sI17
I25
sI18
I22
sI22
I9
sI25
I9
ssI12
(dp197
I32
I9
sI33
I12
sI8
I26
sI9
I40
sI10
I44
sI11
I33
sI44
I29
sI17
I32
sI18
I9
sI40
I11
sI26
I9
sI29
I9
ssI13
(dp198
I34
I9
sI36
I9
sI37
I17
sI6
I44
sI8
I23
sI9
I27
sI10
I22
sI11
I8
sI44
I36
sI13
I6
sI14
I37
sI17
I34
sI18
I13
sI22
I14
sI23
I9
sI27
I12
ssI14
(dp199
I35
I9
sI8
I35
sI9
I21
sI10
I26
sI11
I27
sI44
I31
sI17
I9
sI18
I30
sI21
I12
sI26
I18
sI27
I9
sI30
I44
sI31
I9
ssI15
(dp200
I35
I44
sI37
I9
sI38
I9
sI8
I38
sI9
I12
sI11
I37
sI44
I9
sI14
I18
sI17
I14
sI18
I35
ssI16
(dp201
I6
I12
sI7
I6
sI8
I29
sI9
I11
sI10
I28
sI11
I10
sI44
I28
sI14
I40
sI15
I18
sI17
I40
sI18
I7
sI40
I15
sI28
I14
sI29
I11
ssI17
(dp202
I1
I3
sI3
I5
sI4
I1
sI5
I12
sI38
I17
sI8
I21
sI9
I10
sI10
I29
sI11
I38
sI44
I14
sI14
I11
sI16
I18
sI17
I16
sI18
I4
sI21
I9
sI29
I17
ssI18
(dp203
I35
I11
sI7
I17
sI8
I9
sI9
I14
sI11
I7
sI44
I35
sI14
I17
sI17
I22
sI18
I28
sI22
I18
sI28
I12
ssI19
(dp204
I35
I12
sI36
I44
sI37
I11
sI8
I25
sI9
I30
sI10
I17
sI11
I35
sI44
I30
sI17
I37
sI18
I36
sI25
I44
sI30
I17
ssI20
(dp205
I36
I12
sI37
I44
sI8
I27
sI9
I23
sI11
I36
sI44
I22
sI17
I21
sI18
I37
sI21
I11
sI22
I17
sI23
I17
sI27
I44
ssI21
(dp206
I32
I17
sI39
I12
sI8
I32
sI9
I24
sI11
I39
sI44
I39
sI17
I11
sI18
I21
sI21
I8
sI24
I17
ssI22
(dp207
I34
I17
sI36
I17
sI7
I12
sI8
I36
sI9
I17
sI11
I9
sI44
I34
sI17
I7
sI18
I8
ssI23
(dp208
I8
I17
sI9
I18
sI11
I14
sI44
I17
sI14
I44
sI17
I12
sI18
I44
ssI24
(dp209
I33
I44
sI37
I8
sI38
I18
sI8
I33
sI9
I37
sI11
I22
sI44
I38
sI17
I27
sI18
I29
sI22
I44
sI27
I18
sI29
I12
ssI25
(dp210
I34
I8
sI38
I12
sI39
I44
sI8
I39
sI9
I34
sI11
I44
sI44
I7
sI17
I29
sI18
I38
sI7
I18
sI29
I18
ssI26
(dp211
I34
I12
sI35
I18
sI8
I44
sI9
I8
sI11
I21
sI44
I21
sI17
I35
sI18
I34
sI21
I18
ssI27
(dp212
I8
I11
sI9
I16
sI11
I30
sI44
I18
sI16
I44
sI17
I18
sI18
I12
sI30
I18
ssI28
(dp213
I6
I17
sI8
I31
sI9
I29
sI11
I17
sI44
I24
sI17
I8
sI18
I6
sI24
I8
sI29
I44
sI31
I12
ssI29
(dp214
I32
I44
sI8
I12
sI9
I32
sI11
I24
sI44
I8
sI15
I44
sI16
I17
sI17
I15
sI18
I16
sI24
I18
ssI30
(dp215
I38
I44
sI8
I10
sI9
I38
sI10
I18
sI11
I12
sI44
I11
sI17
I26
sI18
I26
sI26
I44
ssI31
(dp216
I37
I18
sI7
I44
sI8
I37
sI9
I7
sI10
I15
sI11
I31
sI44
I27
sI15
I12
sI17
I28
sI18
I27
sI27
I10
sI28
I44
sI31
I18
ssI32
(dp217
I33
I17
sI8
I18
sI9
I31
sI10
I12
sI11
I18
sI44
I10
sI17
I24
sI18
I33
sI24
I44
sI31
I44
ssI33
(dp218
I3
I42
sI4
I20
sI9
I44
sI42
I12
sI44
I46
sI46
I4
sI17
I44
sI18
I17
sI19
I20
sI20
I3
ssI34
(dp219
I19
I3
sI44
I4
sI3
I45
sI4
I19
sI45
I12
ssI35
(dp220
I4
I45
sI3
I12
sI44
I3
sI45
I3
ssI36
(dp221
I44
I37
sI37
I12
ssI37
(dp222
I44
I12
sssI13
(dp223
I1
(dp224
I1
I5
sI2
I1
sI3
I1
sI4
I2
sI5
I44
sI6
I18
sI7
I6
sI8
I25
sI9
I29
sI10
I22
sI11
I22
sI12
I13
sI14
I28
sI15
I12
sI16
I12
sI17
I33
sI18
I16
sI21
I8
sI22
I12
sI23
I18
sI24
I8
sI25
I44
sI26
I18
sI27
I8
sI28
I18
sI29
I44
sI30
I39
sI31
I8
sI32
I8
sI33
I26
sI34
I8
sI35
I8
sI36
I8
sI37
I8
sI38
I9
sI39
I9
sI40
I11
sI41
I3
sI42
I3
sI43
I3
sI44
I23
sI45
I3
sI46
I4
ssI2
(dp225
I1
I4
sI2
I4
sI3
I2
sI4
I42
sI6
I10
sI7
I9
sI8
I27
sI9
I32
sI10
I13
sI11
I38
sI12
I21
sI14
I22
sI15
I10
sI16
I44
sI17
I22
sI18
I35
sI21
I44
sI22
I10
sI23
I8
sI24
I9
sI25
I8
sI26
I44
sI27
I44
sI28
I44
sI29
I8
sI30
I9
sI31
I9
sI32
I44
sI33
I9
sI34
I9
sI35
I44
sI36
I9
sI37
I9
sI38
I17
sI39
I8
sI40
I14
sI41
I4
sI42
I44
sI43
I4
sI44
I22
sI45
I4
ssI3
(dp226
I3
I19
sI4
I8
sI6
I14
sI7
I11
sI8
I30
sI9
I38
sI10
I26
sI11
I13
sI12
I35
sI14
I23
sI15
I44
sI16
I11
sI17
I16
sI18
I36
sI19
I4
sI20
I19
sI21
I9
sI22
I8
sI23
I44
sI24
I11
sI25
I9
sI26
I17
sI27
I9
sI28
I8
sI29
I9
sI30
I44
sI31
I11
sI32
I9
sI33
I11
sI34
I10
sI35
I14
sI36
I44
sI37
I11
sI38
I44
sI39
I17
sI40
I15
sI42
I4
sI44
I39
ssI4
(dp227
I1
I2
sI2
I3
sI3
I20
sI4
I46
sI5
I1
sI6
I7
sI7
I44
sI8
I24
sI9
I7
sI10
I29
sI11
I7
sI12
I5
sI14
I18
sI15
I6
sI16
I6
sI17
I24
sI18
I29
sI20
I4
sI21
I11
sI22
I44
sI23
I9
sI24
I44
sI25
I11
sI26
I33
sI27
I10
sI28
I9
sI29
I17
sI30
I10
sI31
I18
sI32
I10
sI33
I8
sI34
I12
sI35
I9
sI36
I11
sI37
I17
sI38
I10
sI39
I11
sI40
I17
sI44
I13
sI46
I44
ssI5
(dp228
I3
I5
sI4
I12
sI5
I12
sI6
I15
sI7
I12
sI8
I33
sI9
I27
sI10
I17
sI11
I15
sI12
I15
sI14
I25
sI15
I18
sI16
I17
sI17
I27
sI18
I13
sI21
I17
sI22
I11
sI23
I11
sI24
I12
sI25
I18
sI26
I9
sI27
I18
sI28
I10
sI29
I10
sI30
I17
sI32
I11
sI33
I44
sI34
I18
sI35
I11
sI36
I12
sI37
I18
sI38
I11
sI39
I12
sI44
I25
ssI6
(dp229
I3
I42
sI4
I5
sI5
I3
sI6
I16
sI7
I17
sI8
I13
sI9
I21
sI10
I12
sI11
I24
sI12
I31
sI14
I8
sI15
I8
sI16
I18
sI17
I26
sI18
I39
sI21
I12
sI22
I14
sI23
I12
sI24
I18
sI25
I12
sI26
I8
sI27
I11
sI28
I12
sI29
I11
sI30
I8
sI31
I17
sI32
I12
sI33
I12
sI34
I44
sI35
I12
sI36
I14
sI37
I44
sI38
I18
sI39
I30
sI42
I12
sI44
I3
ssI7
(dp230
I1
I3
sI3
I45
sI4
I1
sI6
I9
sI7
I18
sI8
I34
sI9
I31
sI10
I28
sI11
I31
sI12
I17
sI14
I35
sI15
I17
sI16
I8
sI17
I13
sI18
I38
sI21
I18
sI22
I17
sI23
I14
sI24
I17
sI25
I14
sI26
I10
sI27
I12
sI28
I11
sI29
I12
sI30
I18
sI31
I44
sI32
I17
sI33
I17
sI34
I17
sI35
I17
sI36
I17
sI38
I12
sI39
I18
sI44
I34
sI45
I12
ssI8
(dp231
I3
I12
sI4
I20
sI5
I4
sI6
I13
sI8
I31
sI9
I23
sI10
I6
sI11
I30
sI12
I37
sI14
I6
sI15
I40
sI16
I9
sI17
I28
sI18
I4
sI19
I20
sI20
I3
sI22
I18
sI23
I17
sI25
I17
sI26
I11
sI27
I17
sI28
I14
sI29
I18
sI30
I12
sI31
I12
sI32
I18
sI33
I18
sI35
I18
sI37
I14
sI39
I44
sI40
I9
sI44
I5
ssI9
(dp232
I3
I44
sI4
I19
sI6
I17
sI8
I10
sI9
I13
sI10
I30
sI11
I44
sI12
I36
sI14
I9
sI15
I9
sI16
I10
sI17
I38
sI18
I22
sI19
I3
sI22
I9
sI26
I12
sI28
I17
sI30
I11
sI36
I18
sI37
I12
sI38
I8
sI44
I37
sssI14
(dp233
I1
(dp234
I1
I4
sI2
I4
sI3
I1
sI4
I12
sI5
I1
sI6
I18
sI7
I11
sI8
I25
sI9
I16
sI10
I13
sI11
I22
sI12
I16
sI13
I18
sI15
I6
sI16
I6
sI17
I40
sI18
I14
sI21
I9
sI22
I44
sI23
I9
sI24
I8
sI25
I44
sI26
I9
sI27
I9
sI28
I9
sI29
I8
sI30
I8
sI31
I9
sI32
I9
sI33
I9
sI34
I8
sI35
I8
sI36
I8
sI37
I8
sI38
I9
sI39
I11
sI40
I15
sI41
I3
sI43
I3
sI44
I15
sI46
I4
ssI2
(dp235
I1
I5
sI2
I1
sI3
I2
sI4
I2
sI5
I44
sI6
I13
sI7
I12
sI8
I27
sI9
I29
sI10
I26
sI11
I30
sI12
I45
sI13
I44
sI15
I40
sI16
I9
sI17
I23
sI18
I13
sI21
I11
sI22
I17
sI23
I14
sI24
I9
sI25
I9
sI26
I18
sI27
I44
sI28
I11
sI29
I44
sI30
I18
sI31
I11
sI32
I10
sI33
I11
sI34
I9
sI35
I9
sI36
I9
sI37
I9
sI38
I10
sI39
I12
sI40
I9
sI44
I22
sI45
I4
ssI3
(dp236
I1
I2
sI2
I3
sI3
I19
sI4
I42
sI5
I3
sI6
I16
sI7
I17
sI8
I6
sI9
I32
sI10
I6
sI11
I24
sI12
I4
sI13
I6
sI15
I17
sI16
I12
sI17
I36
sI18
I39
sI19
I4
sI20
I19
sI21
I12
sI22
I8
sI23
I44
sI24
I18
sI25
I11
sI26
I11
sI27
I17
sI28
I12
sI29
I9
sI30
I44
sI31
I12
sI32
I44
sI33
I17
sI34
I12
sI35
I17
sI36
I14
sI37
I11
sI38
I11
sI39
I17
sI40
I11
sI42
I44
sI44
I39
ssI4
(dp237
I3
I20
sI4
I18
sI5
I4
sI6
I17
sI7
I6
sI8
I28
sI9
I30
sI10
I15
sI11
I13
sI12
I5
sI13
I12
sI15
I12
sI16
I10
sI17
I14
sI18
I7
sI20
I4
sI21
I17
sI22
I10
sI24
I11
sI25
I17
sI26
I17
sI27
I18
sI28
I10
sI29
I10
sI30
I17
sI31
I17
sI32
I11
sI33
I18
sI34
I17
sI35
I18
sI36
I11
sI37
I12
sI38
I12
sI39
I30
sI40
I17
sI44
I5
ssI5
(dp238
I3
I5
sI4
I5
sI5
I12
sI6
I14
sI7
I18
sI8
I4
sI9
I23
sI10
I29
sI11
I26
sI12
I6
sI13
I8
sI15
I44
sI16
I44
sI17
I33
sI18
I35
sI21
I18
sI22
I11
sI23
I17
sI24
I12
sI26
I12
sI28
I17
sI29
I17
sI30
I39
sI32
I12
sI33
I26
sI34
I18
sI35
I11
sI36
I12
sI37
I17
sI38
I17
sI39
I9
sI44
I35
ssI6
(dp239
I1
I3
sI3
I42
sI4
I1
sI6
I8
sI8
I22
sI9
I24
sI10
I16
sI11
I23
sI12
I35
sI13
I9
sI16
I11
sI17
I28
sI18
I36
sI22
I12
sI23
I12
sI24
I17
sI26
I44
sI28
I44
sI29
I12
sI32
I18
sI35
I14
sI36
I44
sI37
I44
sI38
I18
sI39
I44
sI42
I12
sI44
I11
ssI7
(dp240
I3
I41
sI4
I8
sI6
I7
sI7
I9
sI8
I30
sI9
I27
sI10
I12
sI11
I25
sI12
I37
sI13
I11
sI15
I18
sI17
I15
sI18
I37
sI22
I18
sI25
I12
sI27
I12
sI28
I18
sI29
I18
sI30
I12
sI35
I44
sI36
I17
sI37
I14
sI41
I4
sI42
I4
sI44
I42
ssI8
(dp241
I32
I17
sI3
I43
sI4
I46
sI6
I9
sI8
I32
sI9
I25
sI10
I30
sI11
I32
sI12
I42
sI13
I17
sI46
I44
sI15
I9
sI16
I18
sI17
I16
sI18
I15
sI43
I4
sI23
I18
sI25
I14
sI44
I23
sI42
I3
sI30
I11
ssI9
(dp242
I33
I12
sI3
I4
sI4
I44
sI6
I10
sI8
I24
sI9
I14
sI10
I27
sI11
I33
sI12
I3
sI44
I25
sI17
I24
sI18
I22
sI22
I9
sI24
I44
sI25
I18
sI27
I11
ssI10
(dp243
I3
I45
sI4
I20
sI6
I15
sI8
I34
sI9
I38
sI10
I22
sI11
I38
sI12
I36
sI13
I10
sI15
I11
sI16
I17
sI17
I26
sI18
I16
sI19
I20
sI20
I3
sI22
I14
sI26
I33
sI33
I8
sI34
I10
sI36
I18
sI38
I44
sI44
I13
sI45
I12
ssI11
(dp244
I3
I12
sI4
I19
sI38
I8
sI6
I11
sI39
I18
sI8
I10
sI9
I7
sI10
I28
sI11
I31
sI12
I39
sI44
I30
sI17
I38
sI18
I30
sI19
I3
sI7
I44
sI28
I14
sI30
I10
sI31
I18
ssI12
(dp245
I3
I44
sI4
I45
sI37
I18
sI6
I12
sI39
I8
sI8
I37
sI9
I31
sI10
I17
sI11
I35
sI12
I14
sI45
I3
sI44
I27
sI17
I39
sI18
I23
sI35
I12
sI23
I11
sI27
I10
sI31
I44
ssI13
(dp246
I6
I44
sI8
I29
sI9
I44
sI10
I18
sI11
I40
sI12
I21
sI44
I16
sI16
I8
sI17
I31
sI18
I25
sI21
I44
sI40
I14
sI25
I8
sI29
I11
sI31
I8
ssI14
(dp247
I34
I44
sI8
I11
sI9
I15
sI10
I34
sI11
I14
sI12
I23
sI44
I26
sI17
I8
sI18
I21
sI21
I8
sI23
I8
sI26
I8
sI15
I10
ssI15
(dp248
I32
I8
sI33
I44
sI8
I33
sI9
I26
sI10
I32
sI11
I44
sI12
I27
sI44
I14
sI17
I44
sI18
I8
sI26
I10
sI27
I8
ssI16
(dp249
I8
I14
sI9
I10
sI10
I8
sI11
I15
sI12
I8
sI44
I28
sI17
I30
sI18
I9
sI15
I8
sI28
I8
sI30
I9
sssI15
(dp250
I1
(dp251
I1
I5
sI2
I1
sI3
I1
sI4
I2
sI5
I44
sI6
I16
sI7
I6
sI8
I25
sI9
I16
sI10
I13
sI11
I22
sI12
I15
sI13
I18
sI14
I23
sI16
I12
sI17
I33
sI18
I39
sI21
I8
sI22
I44
sI23
I44
sI24
I8
sI25
I44
sI26
I44
sI27
I8
sI28
I8
sI29
I8
sI30
I44
sI31
I8
sI32
I8
sI33
I26
sI34
I8
sI35
I8
sI36
I8
sI37
I12
sI38
I8
sI39
I30
sI40
I9
sI41
I3
sI42
I3
sI43
I3
sI44
I37
sI45
I3
ssI2
(dp252
I1
I4
sI2
I4
sI3
I2
sI4
I12
sI5
I4
sI6
I10
sI7
I11
sI8
I27
sI9
I29
sI10
I15
sI11
I30
sI12
I35
sI13
I10
sI14
I28
sI16
I9
sI17
I28
sI18
I35
sI21
I9
sI22
I8
sI23
I8
sI24
I9
sI25
I8
sI26
I33
sI27
I44
sI28
I44
sI29
I44
sI30
I18
sI31
I9
sI32
I9
sI33
I8
sI34
I9
sI35
I44
sI36
I9
sI37
I8
sI38
I9
sI39
I8
sI40
I11
sI43
I4
sI44
I13
sI45
I4
ssI3
(dp253
I3
I19
sI4
I42
sI6
I11
sI7
I12
sI8
I22
sI9
I32
sI10
I26
sI11
I24
sI12
I36
sI13
I8
sI14
I25
sI16
I10
sI17
I24
sI18
I36
sI19
I4
sI20
I19
sI21
I11
sI22
I12
sI23
I9
sI24
I44
sI25
I17
sI26
I18
sI27
I9
sI28
I9
sI29
I9
sI30
I39
sI31
I11
sI32
I44
sI33
I9
sI34
I12
sI35
I9
sI36
I44
sI37
I9
sI38
I10
sI39
I9
sI40
I14
sI42
I44
sI44
I15
ssI4
(dp254
I3
I20
sI4
I46
sI6
I7
sI7
I9
sI8
I28
sI9
I38
sI10
I22
sI11
I13
sI12
I37
sI13
I12
sI14
I35
sI16
I18
sI17
I16
sI18
I15
sI20
I4
sI21
I12
sI22
I17
sI23
I14
sI24
I11
sI25
I9
sI26
I8
sI27
I10
sI28
I10
sI29
I10
sI30
I10
sI31
I12
sI32
I10
sI33
I11
sI34
I17
sI35
I17
sI36
I11
sI37
I14
sI38
I44
sI39
I11
sI40
I17
sI44
I22
sI46
I44
ssI5
(dp255
I3
I41
sI4
I8
sI6
I14
sI7
I17
sI8
I30
sI9
I27
sI10
I12
sI11
I15
sI12
I39
sI13
I9
sI14
I37
sI16
I11
sI17
I22
sI18
I23
sI21
I17
sI22
I18
sI23
I11
sI24
I17
sI25
I11
sI26
I9
sI27
I12
sI28
I12
sI29
I11
sI30
I12
sI31
I17
sI32
I11
sI33
I12
sI34
I18
sI35
I11
sI36
I12
sI37
I17
sI38
I11
sI39
I18
sI41
I4
sI44
I3
ssI6
(dp256
I3
I5
sI4
I18
sI5
I12
sI6
I13
sI7
I18
sI8
I33
sI9
I30
sI10
I29
sI11
I26
sI12
I13
sI13
I17
sI14
I40
sI16
I17
sI17
I40
sI18
I16
sI21
I18
sI22
I9
sI23
I18
sI24
I18
sI25
I18
sI26
I12
sI27
I11
sI28
I14
sI29
I17
sI30
I17
sI31
I18
sI32
I18
sI33
I44
sI34
I44
sI35
I12
sI36
I14
sI37
I11
sI38
I12
sI39
I17
sI40
I15
sI44
I39
ssI7
(dp257
I1
I2
sI2
I3
sI3
I42
sI4
I5
sI5
I1
sI6
I9
sI7
I44
sI8
I34
sI9
I15
sI10
I28
sI11
I23
sI12
I28
sI13
I11
sI14
I17
sI16
I44
sI17
I30
sI18
I37
sI21
I44
sI22
I11
sI23
I12
sI26
I10
sI27
I17
sI28
I17
sI29
I12
sI30
I9
sI31
I44
sI33
I17
sI34
I10
sI35
I14
sI36
I17
sI37
I44
sI38
I17
sI39
I12
sI42
I12
sI44
I5
ssI8
(dp258
I1
I3
sI3
I45
sI4
I1
sI6
I17
sI8
I32
sI9
I23
sI10
I17
sI11
I6
sI12
I14
sI13
I44
sI14
I6
sI17
I15
sI18
I4
sI22
I14
sI23
I17
sI26
I11
sI27
I18
sI28
I18
sI29
I18
sI30
I11
sI32
I17
sI33
I18
sI35
I18
sI36
I18
sI37
I18
sI38
I18
sI39
I44
sI42
I4
sI44
I42
sI45
I12
ssI9
(dp259
I3
I12
sI4
I20
sI6
I15
sI8
I24
sI9
I28
sI10
I18
sI11
I25
sI12
I16
sI13
I6
sI14
I18
sI44
I46
sI16
I6
sI17
I44
sI18
I13
sI19
I20
sI20
I3
sI46
I4
sI24
I12
sI25
I12
sI26
I17
sI28
I11
ssI10
(dp260
I32
I12
sI3
I44
sI4
I19
sI5
I3
sI6
I18
sI8
I15
sI9
I25
sI10
I6
sI11
I32
sI12
I5
sI14
I22
sI44
I16
sI16
I8
sI17
I6
sI18
I30
sI19
I3
sI22
I10
sI25
I14
sI30
I8
sssI16
(dp261
I1
(dp262
I1
I5
sI2
I1
sI3
I5
sI4
I2
sI5
I12
sI6
I18
sI7
I6
sI8
I25
sI9
I29
sI10
I22
sI11
I22
sI12
I16
sI13
I12
sI14
I28
sI15
I10
sI17
I33
sI18
I29
sI21
I8
sI22
I12
sI23
I18
sI24
I9
sI25
I44
sI26
I18
sI27
I8
sI28
I18
sI29
I12
sI30
I39
sI31
I8
sI32
I8
sI33
I26
sI34
I8
sI35
I8
sI36
I8
sI37
I8
sI38
I8
sI39
I9
sI40
I11
sI41
I3
sI42
I3
sI43
I3
sI44
I23
sI45
I3
sI46
I4
ssI2
(dp263
I1
I4
sI3
I1
sI4
I42
sI5
I4
sI6
I10
sI7
I9
sI8
I30
sI9
I32
sI10
I26
sI11
I38
sI12
I21
sI13
I18
sI14
I23
sI15
I6
sI17
I24
sI18
I16
sI21
I44
sI22
I8
sI23
I44
sI24
I44
sI25
I18
sI26
I12
sI27
I9
sI28
I44
sI29
I8
sI30
I18
sI31
I9
sI32
I44
sI33
I9
sI34
I9
sI35
I9
sI36
I9
sI37
I9
sI38
I17
sI39
I8
sI40
I14
sI41
I4
sI42
I44
sI43
I4
sI44
I25
sI45
I4
ssI3
(dp264
I2
I4
sI3
I2
sI4
I12
sI5
I44
sI6
I13
sI7
I17
sI8
I34
sI9
I38
sI10
I34
sI11
I7
sI12
I35
sI13
I9
sI14
I22
sI15
I18
sI17
I22
sI18
I39
sI21
I9
sI22
I10
sI23
I8
sI24
I11
sI25
I8
sI26
I44
sI27
I10
sI28
I8
sI29
I9
sI30
I8
sI31
I11
sI32
I9
sI33
I11
sI34
I44
sI35
I14
sI36
I11
sI37
I11
sI38
I44
sI39
I30
sI40
I15
sI42
I4
sI44
I16
ssI4
(dp265
I1
I2
sI2
I3
sI3
I19
sI4
I8
sI5
I1
sI6
I7
sI7
I44
sI8
I27
sI9
I7
sI10
I29
sI11
I15
sI12
I5
sI13
I6
sI14
I18
sI15
I44
sI17
I16
sI18
I35
sI19
I4
sI20
I19
sI21
I11
sI22
I17
sI23
I9
sI24
I17
sI25
I9
sI26
I33
sI27
I44
sI28
I9
sI29
I17
sI30
I44
sI31
I12
sI32
I10
sI33
I8
sI34
I10
sI35
I44
sI36
I12
sI37
I12
sI38
I9
sI39
I17
sI40
I17
sI44
I39
ssI5
(dp266
I3
I20
sI4
I46
sI6
I11
sI7
I11
sI8
I33
sI9
I23
sI10
I16
sI11
I24
sI12
I26
sI13
I11
sI14
I6
sI15
I17
sI17
I27
sI18
I38
sI20
I4
sI21
I12
sI22
I9
sI23
I17
sI24
I18
sI25
I11
sI26
I10
sI27
I18
sI28
I10
sI29
I11
sI30
I10
sI32
I18
sI33
I44
sI34
I12
sI35
I11
sI36
I14
sI37
I14
sI38
I12
sI39
I11
sI44
I32
sI46
I44
ssI6
(dp267
I3
I42
sI4
I5
sI5
I3
sI6
I14
sI7
I12
sI8
I16
sI9
I13
sI10
I12
sI11
I31
sI12
I13
sI13
I17
sI14
I25
sI15
I40
sI17
I29
sI18
I36
sI21
I17
sI22
I44
sI23
I12
sI24
I8
sI25
I17
sI26
I8
sI27
I11
sI28
I12
sI29
I18
sI30
I11
sI31
I18
sI32
I11
sI33
I12
sI34
I17
sI35
I12
sI36
I44
sI37
I18
sI38
I10
sI39
I12
sI40
I9
sI42
I12
sI44
I24
ssI7
(dp268
I1
I3
sI3
I45
sI4
I1
sI6
I9
sI7
I18
sI8
I39
sI9
I31
sI10
I17
sI11
I16
sI12
I37
sI13
I44
sI14
I35
sI15
I11
sI17
I35
sI18
I37
sI21
I18
sI22
I11
sI23
I14
sI25
I12
sI26
I11
sI27
I17
sI28
I14
sI29
I44
sI30
I17
sI31
I44
sI32
I12
sI33
I17
sI34
I18
sI35
I18
sI36
I17
sI37
I44
sI38
I11
sI39
I44
sI44
I26
sI45
I12
ssI8
(dp269
I3
I12
sI4
I20
sI6
I16
sI8
I32
sI9
I27
sI10
I6
sI11
I30
sI12
I29
sI13
I8
sI14
I8
sI15
I9
sI17
I18
sI18
I23
sI19
I20
sI20
I3
sI22
I14
sI23
I11
sI25
I14
sI26
I9
sI27
I12
sI28
I17
sI29
I10
sI30
I12
sI32
I17
sI33
I18
sI35
I17
sI36
I18
sI38
I18
sI39
I18
sI44
I3
ssI9
(dp270
I3
I44
sI4
I19
sI6
I15
sI8
I24
sI9
I16
sI10
I28
sI11
I44
sI12
I31
sI13
I10
sI14
I37
sI15
I8
sI17
I30
sI18
I4
sI19
I3
sI22
I18
sI24
I12
sI26
I17
sI28
I11
sI30
I9
sI31
I17
sI37
I17
sI44
I37
sssI17
(dp271
I1
(dp272
I1
I4
sI2
I3
sI3
I1
sI4
I12
sI5
I1
sI6
I14
sI7
I12
sI8
I6
sI9
I15
sI10
I22
sI11
I16
sI12
I16
sI13
I10
sI14
I25
sI15
I10
sI16
I6
sI18
I23
sI21
I8
sI22
I14
sI23
I11
sI24
I8
sI25
I17
sI26
I33
sI27
I9
sI28
I9
sI29
I18
sI30
I39
sI31
I8
sI32
I8
sI33
I8
sI34
I9
sI35
I18
sI36
I14
sI37
I11
sI38
I8
sI39
I9
sI40
I15
sI41
I3
sI42
I3
sI43
I3
sI44
I13
ssI2
(dp273
I1
I5
sI2
I1
sI3
I5
sI4
I2
sI5
I12
sI6
I8
sI7
I18
sI8
I32
sI9
I6
sI10
I32
sI11
I10
sI12
I23
sI13
I8
sI14
I8
sI15
I6
sI16
I10
sI18
I14
sI21
I11
sI22
I8
sI23
I8
sI24
I9
sI25
I9
sI26
I9
sI27
I18
sI28
I44
sI30
I9
sI31
I12
sI32
I17
sI33
I26
sI37
I14
sI38
I18
sI39
I8
sI44
I15
ssI3
(dp274
I1
I2
sI2
I4
sI3
I2
sI4
I18
sI5
I4
sI6
I17
sI7
I44
sI8
I25
sI9
I13
sI10
I8
sI11
I30
sI12
I22
sI13
I6
sI14
I9
sI15
I40
sI16
I18
sI18
I13
sI21
I18
sI22
I11
sI23
I9
sI24
I44
sI25
I44
sI26
I10
sI30
I18
sI32
I9
sI33
I44
sI38
I44
sI40
I9
sI44
I5
ssI4
(dp275
I3
I19
sI4
I5
sI5
I44
sI6
I7
sI7
I9
sI8
I28
sI9
I16
sI10
I13
sI11
I6
sI12
I29
sI13
I18
sI14
I22
sI15
I18
sI16
I17
sI18
I16
sI19
I4
sI20
I19
sI21
I44
sI22
I10
sI23
I18
sI26
I44
sI28
I10
sI29
I10
sI30
I11
sI44
I23
ssI5
(dp276
I3
I20
sI4
I8
sI6
I13
sI7
I6
sI8
I36
sI9
I29
sI10
I16
sI11
I40
sI12
I26
sI13
I44
sI14
I23
sI15
I44
sI16
I11
sI18
I7
sI20
I4
sI22
I18
sI23
I44
sI26
I11
sI29
I44
sI36
I17
sI40
I14
sI42
I4
sI44
I42
ssI6
(dp277
I3
I41
sI4
I42
sI6
I15
sI8
I17
sI9
I32
sI10
I30
sI11
I22
sI12
I25
sI13
I11
sI14
I6
sI15
I11
sI16
I8
sI18
I39
sI22
I44
sI23
I14
sI25
I11
sI30
I44
sI32
I44
sI39
I30
sI41
I4
sI42
I44
sI44
I16
ssI7
(dp278
I35
I44
sI36
I11
sI38
I17
sI6
I10
sI7
I11
sI8
I14
sI12
I7
sI10
I27
sI11
I38
sI44
I14
sI14
I36
sI16
I44
sI18
I35
sI9
I38
sI27
I11
ssI8
(dp279
I32
I10
sI34
I44
sI35
I11
sI36
I44
sI6
I11
sI7
I17
sI8
I15
sI12
I32
sI10
I34
sI11
I7
sI44
I35
sI14
I11
sI15
I9
sI18
I36
sI9
I7
ssI9
(dp280
I35
I17
sI37
I44
sI6
I16
sI8
I13
sI12
I38
sI10
I28
sI11
I15
sI44
I30
sI13
I9
sI14
I35
sI15
I8
sI16
I12
sI18
I37
sI9
I31
sI38
I10
sI28
I14
sI30
I10
sI31
I44
ssI10
(dp281
I35
I14
sI38
I11
sI6
I18
sI8
I29
sI12
I35
sI10
I38
sI11
I14
sI44
I22
sI14
I44
sI18
I44
sI22
I17
sI9
I22
sI29
I11
ssI11
(dp282
I34
I10
sI35
I8
sI6
I44
sI39
I17
sI8
I34
sI12
I6
sI10
I6
sI11
I29
sI44
I39
sI14
I12
sI18
I30
sI9
I35
sI29
I8
sI30
I8
ssI12
(dp283
I34
I17
sI3
I43
sI4
I46
sI8
I4
sI12
I45
sI10
I11
sI11
I8
sI44
I34
sI45
I4
sI14
I28
sI43
I4
sI18
I25
sI46
I44
sI9
I36
sI25
I8
sI28
I18
sI36
I8
ssI13
(dp284
I37
I8
sI8
I22
sI44
I26
sI10
I44
sI11
I21
sI12
I11
sI14
I18
sI18
I21
sI21
I17
sI22
I12
sI9
I37
sI26
I8
ssI14
(dp285
I32
I11
sI34
I8
sI8
I30
sI12
I10
sI10
I29
sI11
I28
sI44
I28
sI18
I32
sI9
I34
sI28
I8
sI29
I17
sI30
I12
ssI15
(dp286
I37
I17
sI6
I9
sI8
I16
sI44
I6
sI11
I13
sI12
I37
sI13
I12
sI14
I37
sI16
I9
sI18
I24
sI9
I25
sI24
I11
sI25
I14
ssI16
(dp287
I8
I26
sI44
I29
sI10
I9
sI11
I26
sI12
I14
sI14
I40
sI40
I17
sI18
I10
sI9
I28
sI26
I12
sI28
I11
sI29
I9
ssI17
(dp288
I33
I11
sI36
I9
sI8
I23
sI44
I36
sI11
I23
sI12
I15
sI15
I17
sI18
I15
sI9
I33
sI23
I12
ssI18
(dp289
I35
I9
sI39
I11
sI8
I35
sI12
I13
sI11
I25
sI44
I31
sI13
I17
sI18
I22
sI22
I9
sI9
I39
sI25
I12
sI31
I9
ssI19
(dp290
I8
I24
sI44
I24
sI11
I27
sI12
I28
sI18
I9
sI9
I27
sI24
I12
sI27
I12
sI28
I17
ssI20
(dp291
I37
I9
sI8
I31
sI44
I8
sI11
I37
sI12
I31
sI18
I8
sI21
I12
sI9
I21
sI31
I17
ssI21
(dp292
I32
I12
sI38
I9
sI8
I38
sI12
I17
sI11
I32
sI44
I11
sI18
I31
sI9
I12
sI31
I11
ssI22
(dp293
I36
I18
sI8
I11
sI12
I36
sI10
I15
sI11
I24
sI44
I27
sI15
I12
sI18
I26
sI9
I8
sI24
I18
sI26
I17
sI27
I10
ssI23
(dp294
I39
I18
sI8
I12
sI44
I10
sI10
I12
sI11
I31
sI12
I39
sI40
I11
sI18
I27
sI9
I40
sI27
I17
sI31
I18
ssI24
(dp295
I33
I17
sI34
I18
sI3
I42
sI4
I1
sI1
I3
sI8
I27
sI12
I34
sI10
I26
sI11
I9
sI44
I46
sI46
I4
sI18
I33
sI9
I26
sI26
I18
sI27
I44
sI42
I12
ssI25
(dp296
I33
I12
sI3
I45
sI4
I20
sI8
I33
sI12
I18
sI11
I33
sI44
I4
sI45
I12
sI18
I17
sI19
I20
sI20
I3
sI9
I18
ssI26
(dp297
I3
I4
sI4
I44
sI39
I44
sI8
I39
sI12
I4
sI11
I35
sI44
I17
sI18
I11
sI35
I12
sI9
I44
ssI27
(dp298
I3
I44
sI4
I19
sI5
I3
sI6
I12
sI8
I44
sI12
I5
sI11
I17
sI44
I9
sI18
I6
sI19
I3
sI9
I11
ssI28
(dp299
I3
I12
sI4
I45
sI8
I21
sI12
I27
sI10
I17
sI11
I36
sI44
I3
sI45
I3
sI18
I4
sI21
I9
sI9
I10
sI36
I12
sI27
I8
ssI29
(dp300
I37
I12
sI39
I12
sI8
I9
sI44
I37
sI11
I39
sI12
I8
sI14
I17
sI18
I28
sI9
I14
sI28
I12
ssI30
(dp301
I8
I10
sI44
I12
sI10
I18
sI11
I12
sI12
I30
sI18
I29
sI9
I30
sI29
I12
sI30
I17
ssI31
(dp302
I33
I9
sI37
I18
sI38
I12
sI8
I37
sI12
I33
sI11
I44
sI44
I25
sI18
I38
sI9
I23
sI23
I17
sI25
I18
ssI32
(dp303
I32
I18
sI34
I12
sI8
I18
sI12
I24
sI11
I18
sI44
I32
sI18
I34
sI9
I24
sI24
I17
ssI33
(dp304
I33
I18
sI18
I12
sI44
I33
sI12
I9
sI9
I17
sssI18
(dp305
I1
(dp306
I1
I4
sI2
I4
sI3
I1
sI4
I12
sI5
I1
sI6
I10
sI7
I6
sI8
I6
sI9
I15
sI10
I16
sI11
I30
sI12
I16
sI13
I10
sI14
I22
sI15
I10
sI16
I11
sI17
I10
sI21
I8
sI22
I10
sI23
I11
sI24
I8
sI25
I8
sI26
I10
sI27
I10
sI28
I12
sI29
I10
sI30
I18
sI31
I8
sI32
I9
sI33
I12
sI34
I12
sI35
I11
sI36
I44
sI37
I44
sI38
I8
sI39
I11
sI40
I14
sI41
I3
sI42
I3
sI43
I3
sI44
I13
ssI2
(dp307
I1
I5
sI2
I1
sI3
I2
sI4
I2
sI5
I44
sI6
I18
sI7
I11
sI8
I28
sI9
I25
sI10
I30
sI11
I40
sI12
I22
sI13
I6
sI14
I23
sI15
I6
sI16
I6
sI17
I40
sI21
I9
sI22
I11
sI23
I44
sI24
I11
sI25
I14
sI26
I11
sI27
I17
sI28
I10
sI29
I12
sI30
I11
sI31
I11
sI32
I11
sI33
I17
sI34
I17
sI35
I44
sI38
I12
sI39
I17
sI40
I15
sI44
I15
ssI3
(dp308
I1
I2
sI2
I3
sI3
I19
sI4
I18
sI5
I4
sI6
I8
sI7
I44
sI8
I14
sI9
I26
sI10
I22
sI11
I22
sI12
I26
sI13
I9
sI14
I25
sI15
I40
sI16
I12
sI17
I33
sI19
I4
sI20
I19
sI21
I17
sI22
I44
sI23
I12
sI25
I17
sI26
I44
sI28
I14
sI30
I8
sI32
I12
sI33
I26
sI38
I44
sI39
I30
sI40
I9
sI44
I5
ssI4
(dp309
I3
I20
sI4
I8
sI6
I15
sI8
I34
sI9
I14
sI10
I13
sI11
I44
sI12
I25
sI13
I18
sI14
I35
sI15
I11
sI16
I17
sI17
I26
sI20
I4
sI21
I44
sI22
I9
sI25
I11
sI26
I33
sI30
I44
sI33
I8
sI34
I10
sI35
I17
sI42
I4
sI44
I42
ssI5
(dp310
I3
I41
sI4
I42
sI6
I11
sI8
I29
sI9
I6
sI10
I34
sI11
I24
sI12
I29
sI14
I6
sI15
I44
sI16
I8
sI17
I23
sI22
I12
sI23
I14
sI24
I18
sI25
I12
sI26
I17
sI29
I11
sI34
I44
sI41
I4
sI42
I44
sI44
I16
ssI6
(dp311
I32
I10
sI36
I14
sI6
I16
sI8
I25
sI9
I13
sI10
I28
sI11
I16
sI12
I32
sI13
I8
sI14
I28
sI44
I14
sI16
I10
sI17
I36
sI22
I14
sI25
I44
sI28
I18
ssI7
(dp312
I32
I8
sI35
I14
sI38
I17
sI6
I14
sI8
I11
sI9
I22
sI10
I32
sI11
I38
sI12
I35
sI14
I18
sI44
I35
sI17
I14
sI22
I8
ssI8
(dp313
I35
I8
sI6
I13
sI8
I10
sI9
I35
sI10
I29
sI11
I10
sI12
I6
sI13
I44
sI14
I8
sI44
I30
sI17
I15
sI22
I17
sI15
I18
sI29
I17
sI30
I10
ssI9
(dp314
I3
I5
sI4
I5
sI5
I12
sI6
I44
sI7
I17
sI8
I4
sI9
I36
sI10
I8
sI11
I7
sI12
I7
sI14
I9
sI44
I26
sI16
I18
sI17
I16
sI36
I8
sI26
I8
ssI10
(dp315
I36
I11
sI37
I8
sI38
I10
sI8
I22
sI9
I37
sI10
I17
sI11
I15
sI12
I38
sI14
I36
sI44
I28
sI17
I22
sI22
I18
sI6
I17
sI15
I8
sI28
I8
ssI11
(dp316
I34
I8
sI3
I43
sI4
I46
sI8
I30
sI9
I34
sI10
I9
sI11
I29
sI12
I45
sI45
I4
sI14
I11
sI44
I23
sI17
I28
sI46
I44
sI43
I4
sI23
I18
sI28
I44
sI29
I8
sI30
I12
ssI12
(dp317
I37
I18
sI6
I7
sI7
I9
sI8
I37
sI9
I28
sI10
I27
sI11
I14
sI12
I23
sI14
I12
sI44
I6
sI17
I24
sI23
I8
sI24
I44
sI27
I11
sI28
I11
ssI13
(dp318
I33
I11
sI38
I11
sI8
I15
sI9
I33
sI10
I38
sI11
I31
sI12
I11
sI14
I44
sI44
I29
sI17
I38
sI15
I9
sI29
I9
sI31
I18
ssI14
(dp319
I36
I9
sI37
I17
sI39
I8
sI8
I13
sI9
I39
sI10
I26
sI11
I13
sI12
I10
sI13
I12
sI14
I37
sI44
I36
sI17
I39
sI26
I18
ssI15
(dp320
I36
I18
sI8
I16
sI9
I40
sI10
I11
sI11
I26
sI12
I36
sI44
I31
sI16
I9
sI17
I31
sI40
I11
sI26
I12
sI31
I9
ssI16
(dp321
I6
I12
sI39
I18
sI8
I26
sI9
I27
sI10
I6
sI11
I8
sI12
I39
sI44
I9
sI17
I8
sI26
I9
sI27
I12
ssI17
(dp322
I34
I18
sI6
I9
sI8
I24
sI9
I21
sI10
I44
sI11
I6
sI12
I34
sI44
I24
sI17
I6
sI21
I12
sI24
I12
ssI18
(dp323
I8
I31
sI9
I12
sI11
I28
sI12
I18
sI13
I11
sI44
I8
sI17
I13
sI28
I9
sI31
I12
ssI19
(dp324
I37
I14
sI8
I23
sI9
I30
sI11
I23
sI12
I37
sI14
I40
sI44
I11
sI17
I27
sI40
I17
sI23
I9
sI27
I18
sI30
I17
ssI20
(dp325
I35
I9
sI15
I12
sI8
I35
sI9
I23
sI10
I15
sI11
I27
sI12
I14
sI14
I17
sI44
I27
sI17
I29
sI23
I17
sI27
I9
sI29
I18
ssI21
(dp326
I35
I18
sI37
I9
sI38
I9
sI8
I38
sI9
I24
sI10
I12
sI11
I37
sI12
I15
sI44
I10
sI17
I35
sI24
I17
sI15
I17
ssI22
(dp327
I1
I3
sI3
I42
sI4
I1
sI8
I12
sI9
I17
sI42
I12
sI11
I9
sI12
I13
sI13
I17
sI46
I4
sI44
I46
sI17
I18
ssI23
(dp328
I39
I9
sI8
I27
sI9
I16
sI11
I25
sI12
I28
sI44
I25
sI16
I44
sI17
I30
sI25
I18
sI27
I44
sI28
I17
sI30
I39
ssI24
(dp329
I32
I18
sI33
I44
sI8
I33
sI9
I29
sI11
I32
sI12
I31
sI44
I32
sI17
I25
sI25
I9
sI29
I44
sI31
I17
ssI25
(dp330
I32
I44
sI33
I18
sI39
I44
sI8
I39
sI9
I32
sI11
I33
sI12
I17
sI44
I33
sI17
I32
ssI26
(dp331
I34
I9
sI3
I4
sI4
I44
sI38
I18
sI8
I44
sI9
I38
sI11
I35
sI12
I4
sI44
I38
sI17
I34
sI35
I12
ssI27
(dp332
I32
I17
sI3
I44
sI4
I20
sI5
I3
sI7
I18
sI8
I32
sI9
I7
sI11
I36
sI12
I5
sI44
I7
sI17
I9
sI19
I20
sI20
I3
sI36
I12
ssI28
(dp333
I8
I21
sI9
I31
sI11
I21
sI12
I27
sI44
I21
sI17
I44
sI21
I18
sI27
I8
sI31
I44
ssI29
(dp334
I37
I11
sI39
I12
sI8
I9
sI9
I44
sI11
I39
sI12
I8
sI44
I18
sI17
I37
ssI30
(dp335
I3
I45
sI4
I19
sI8
I18
sI9
I8
sI11
I12
sI12
I30
sI45
I12
sI44
I4
sI17
I21
sI19
I3
sI21
I11
sI30
I9
ssI31
(dp336
I33
I9
sI3
I12
sI4
I45
sI8
I36
sI9
I11
sI11
I18
sI12
I33
sI45
I3
sI44
I3
sI17
I11
sI36
I17
ssI32
(dp337
I37
I12
sI7
I12
sI8
I17
sI9
I10
sI10
I18
sI11
I17
sI12
I24
sI44
I37
sI17
I7
sI24
I9
ssI33
(dp338
I9
I18
sI12
I9
sI17
I12
sI44
I12
sssI19
(dp339
I1
(dp340
I1
I4
sI2
I3
sI3
I45
sI4
I20
sI5
I44
sI6
I13
sI7
I11
sI8
I44
sI9
I23
sI10
I22
sI11
I44
sI12
I45
sI13
I12
sI14
I23
sI15
I44
sI16
I44
sI17
I22
sI18
I34
sI20
I19
sI21
I9
sI22
I44
sI23
I44
sI24
I44
sI25
I8
sI26
I33
sI27
I44
sI28
I18
sI29
I8
sI30
I8
sI31
I8
sI32
I8
sI33
I8
sI34
I12
sI35
I8
sI36
I18
sI37
I18
sI38
I8
sI39
I8
sI40
I9
sI41
I3
sI42
I4
sI43
I3
sI44
I46
sI45
I4
sI46
I4
ssI2
(dp341
I1
I2
sI2
I4
sI3
I5
sI4
I19
sI5
I4
sI6
I11
sI7
I12
sI8
I39
sI9
I32
sI10
I44
sI11
I7
sI12
I42
sI13
I18
sI14
I18
sI15
I6
sI16
I6
sI17
I31
sI18
I4
sI20
I3
sI21
I18
sI22
I8
sI23
I8
sI24
I8
sI25
I9
sI26
I8
sI27
I8
sI28
I8
sI29
I10
sI30
I39
sI31
I44
sI32
I18
sI33
I9
sI34
I8
sI35
I9
sI36
I8
sI37
I8
sI38
I9
sI39
I9
sI40
I11
sI41
I4
sI42
I3
sI43
I4
sI44
I4
sI45
I3
ssI3
(dp342
I1
I5
sI2
I1
sI3
I19
sI4
I46
sI5
I12
sI6
I18
sI7
I17
sI8
I33
sI9
I21
sI10
I17
sI11
I21
sI12
I13
sI13
I17
sI14
I44
sI15
I18
sI16
I11
sI17
I24
sI18
I21
sI20
I4
sI21
I8
sI22
I9
sI23
I9
sI24
I18
sI25
I11
sI26
I44
sI27
I9
sI28
I9
sI29
I9
sI30
I18
sI31
I9
sI32
I44
sI33
I26
sI34
I9
sI35
I11
sI36
I9
sI37
I9
sI38
I10
sI39
I30
sI40
I14
sI42
I44
sI44
I3
sI45
I12
sI46
I44
sssI20
(dp343
I1
(dp344
I1
I4
sI2
I4
sI3
I45
sI4
I19
sI5
I44
sI6
I13
sI7
I11
sI8
I44
sI9
I23
sI10
I22
sI11
I44
sI12
I45
sI13
I12
sI14
I23
sI15
I44
sI16
I44
sI17
I22
sI18
I34
sI19
I20
sI21
I9
sI22
I44
sI23
I44
sI24
I44
sI25
I8
sI26
I33
sI27
I44
sI28
I18
sI29
I8
sI30
I8
sI31
I8
sI32
I8
sI33
I8
sI34
I12
sI35
I8
sI36
I18
sI37
I18
sI38
I8
sI39
I8
sI40
I9
sI41
I3
sI42
I4
sI43
I3
sI44
I46
sI45
I4
sI46
I4
ssI2
(dp345
I1
I2
sI2
I3
sI3
I5
sI4
I20
sI5
I4
sI6
I11
sI7
I12
sI8
I39
sI9
I32
sI10
I44
sI11
I7
sI12
I42
sI13
I18
sI14
I18
sI15
I6
sI16
I6
sI17
I31
sI18
I4
sI19
I3
sI21
I18
sI22
I8
sI23
I8
sI24
I8
sI25
I9
sI26
I8
sI27
I8
sI28
I8
sI29
I10
sI30
I39
sI31
I44
sI32
I18
sI33
I9
sI34
I8
sI35
I9
sI36
I8
sI37
I8
sI38
I9
sI39
I9
sI40
I11
sI41
I4
sI42
I3
sI43
I4
sI44
I4
sI45
I3
ssI3
(dp346
I1
I5
sI2
I1
sI3
I20
sI4
I46
sI5
I12
sI6
I18
sI7
I17
sI8
I33
sI9
I21
sI10
I17
sI11
I21
sI12
I13
sI13
I17
sI14
I44
sI15
I18
sI16
I11
sI17
I24
sI18
I21
sI19
I4
sI21
I8
sI22
I9
sI23
I9
sI24
I18
sI25
I11
sI26
I44
sI27
I9
sI28
I9
sI29
I9
sI30
I18
sI31
I9
sI32
I44
sI33
I26
sI34
I9
sI35
I11
sI36
I9
sI37
I9
sI38
I10
sI39
I30
sI40
I14
sI42
I44
sI44
I3
sI45
I12
sI46
I44
sssI21
(dp347
I1
(dp348
I1
I5
sI2
I1
sI3
I5
sI4
I2
sI5
I44
sI6
I10
sI7
I44
sI8
I25
sI9
I23
sI10
I34
sI11
I44
sI12
I34
sI13
I11
sI14
I23
sI15
I10
sI16
I44
sI17
I22
sI18
I21
sI19
I20
sI20
I3
sI22
I18
sI23
I44
sI24
I44
sI25
I44
sI26
I33
sI27
I8
sI28
I18
sI29
I8
sI30
I44
sI31
I18
sI32
I44
sI33
I8
sI34
I18
sI35
I8
sI36
I18
sI37
I8
sI38
I9
sI39
I30
sI40
I9
sI41
I3
sI42
I3
sI43
I3
sI44
I36
sI45
I3
sI46
I4
ssI2
(dp349
I1
I4
sI3
I1
sI4
I42
sI5
I4
sI6
I18
sI7
I11
sI8
I36
sI9
I32
sI10
I22
sI11
I22
sI12
I21
sI13
I12
sI14
I25
sI15
I44
sI16
I12
sI17
I24
sI18
I34
sI19
I3
sI20
I4
sI22
I44
sI23
I8
sI24
I18
sI25
I17
sI26
I17
sI27
I9
sI28
I44
sI29
I18
sI30
I8
sI31
I44
sI32
I18
sI33
I44
sI34
I12
sI35
I9
sI36
I44
sI37
I9
sI38
I44
sI39
I8
sI40
I11
sI41
I4
sI42
I44
sI43
I4
sI44
I34
sI45
I4
ssI3
(dp350
I2
I4
sI3
I2
sI4
I46
sI5
I12
sI6
I11
sI7
I12
sI8
I33
sI9
I21
sI10
I27
sI11
I30
sI12
I13
sI13
I17
sI14
I6
sI15
I12
sI16
I6
sI17
I33
sI18
I22
sI19
I4
sI20
I19
sI22
I9
sI23
I9
sI24
I9
sI25
I8
sI26
I18
sI27
I11
sI28
I8
sI29
I9
sI30
I17
sI31
I8
sI32
I8
sI33
I18
sI34
I8
sI35
I44
sI36
I8
sI37
I18
sI38
I10
sI39
I9
sI40
I14
sI42
I4
sI44
I37
sI46
I44
ssI4
(dp351
I3
I42
sI4
I18
sI6
I13
sI7
I17
sI8
I22
sI9
I25
sI10
I28
sI11
I21
sI12
I39
sI13
I44
sI14
I35
sI15
I6
sI16
I8
sI17
I26
sI18
I23
sI22
I12
sI23
I11
sI24
I11
sI25
I14
sI26
I8
sI27
I10
sI28
I11
sI29
I10
sI30
I39
sI31
I9
sI32
I9
sI33
I9
sI34
I9
sI35
I11
sI36
I9
sI37
I11
sI38
I11
sI39
I18
sI40
I15
sI42
I12
sI44
I9
ssI5
(dp352
I3
I45
sI4
I8
sI6
I16
sI7
I18
sI8
I44
sI9
I29
sI10
I30
sI11
I38
sI12
I15
sI13
I18
sI14
I44
sI15
I18
sI16
I17
sI17
I35
sI18
I24
sI22
I8
sI23
I14
sI24
I8
sI25
I9
sI26
I9
sI27
I12
sI28
I9
sI29
I17
sI30
I18
sI31
I11
sI32
I10
sI33
I11
sI34
I10
sI35
I18
sI36
I11
sI37
I12
sI38
I17
sI39
I11
sI40
I17
sI44
I21
sI45
I12
ssI6
(dp353
I1
I2
sI2
I3
sI3
I12
sI4
I5
sI5
I1
sI6
I14
sI7
I9
sI8
I21
sI9
I38
sI10
I26
sI11
I23
sI12
I17
sI13
I6
sI14
I28
sI15
I17
sI16
I18
sI17
I38
sI18
I26
sI22
I10
sI23
I12
sI24
I17
sI25
I11
sI26
I12
sI27
I44
sI28
I17
sI29
I11
sI30
I9
sI31
I12
sI32
I11
sI33
I12
sI34
I17
sI35
I12
sI36
I12
sI37
I44
sI38
I8
sI39
I12
sI44
I14
ssI7
(dp354
I1
I3
sI3
I44
sI4
I1
sI5
I3
sI6
I15
sI7
I6
sI8
I26
sI9
I31
sI10
I44
sI11
I24
sI12
I5
sI13
I8
sI14
I8
sI15
I8
sI16
I9
sI17
I21
sI18
I27
sI22
I11
sI23
I18
sI24
I12
sI25
I12
sI26
I44
sI27
I17
sI28
I10
sI29
I44
sI30
I10
sI31
I17
sI32
I12
sI33
I17
sI34
I44
sI35
I14
sI36
I14
sI37
I14
sI38
I12
sI39
I17
sI44
I17
sssI22
(dp355
I1
(dp356
I1
I5
sI2
I1
sI3
I1
sI4
I2
sI5
I44
sI6
I10
sI7
I11
sI8
I25
sI9
I29
sI10
I26
sI11
I40
sI12
I21
sI13
I12
sI14
I28
sI15
I44
sI16
I12
sI17
I33
sI18
I35
sI19
I20
sI20
I3
sI21
I44
sI23
I8
sI24
I8
sI25
I44
sI26
I18
sI27
I8
sI28
I18
sI29
I44
sI30
I39
sI31
I8
sI32
I8
sI33
I26
sI34
I8
sI35
I44
sI36
I8
sI37
I8
sI38
I8
sI39
I9
sI40
I14
sI41
I3
sI42
I3
sI43
I3
sI44
I22
sI45
I3
sI46
I4
ssI2
(dp357
I1
I2
sI2
I4
sI3
I2
sI4
I42
sI5
I1
sI6
I18
sI7
I12
sI8
I27
sI9
I32
sI10
I22
sI11
I38
sI12
I36
sI13
I18
sI14
I25
sI15
I12
sI16
I44
sI17
I24
sI18
I36
sI21
I8
sI23
I9
sI24
I44
sI25
I17
sI26
I44
sI27
I10
sI28
I10
sI29
I8
sI30
I44
sI31
I9
sI32
I44
sI33
I8
sI34
I9
sI35
I8
sI36
I44
sI37
I9
sI38
I17
sI39
I8
sI40
I11
sI41
I4
sI42
I44
sI43
I4
sI44
I27
sI45
I4
ssI3
(dp358
I1
I4
sI2
I3
sI3
I19
sI4
I8
sI6
I13
sI7
I17
sI8
I33
sI9
I38
sI10
I29
sI11
I7
sI12
I22
sI13
I11
sI14
I23
sI15
I10
sI16
I6
sI17
I27
sI18
I29
sI19
I4
sI21
I9
sI23
I44
sI24
I9
sI25
I8
sI26
I33
sI27
I18
sI28
I44
sI29
I12
sI30
I18
sI31
I11
sI32
I9
sI33
I44
sI34
I10
sI35
I9
sI36
I9
sI37
I12
sI38
I44
sI39
I11
sI40
I15
sI42
I4
sI44
I37
ssI4
(dp359
I3
I20
sI4
I46
sI6
I14
sI7
I18
sI8
I24
sI9
I27
sI10
I28
sI11
I22
sI12
I35
sI13
I6
sI14
I35
sI15
I17
sI16
I18
sI17
I37
sI18
I39
sI20
I4
sI21
I18
sI23
I11
sI24
I12
sI25
I9
sI26
I8
sI27
I12
sI28
I11
sI29
I9
sI30
I8
sI31
I12
sI32
I10
sI33
I9
sI34
I12
sI35
I17
sI36
I11
sI37
I11
sI38
I9
sI39
I30
sI40
I17
sI44
I15
sI46
I44
ssI5
(dp360
I3
I5
sI4
I12
sI5
I12
sI6
I16
sI7
I44
sI8
I30
sI9
I7
sI10
I30
sI11
I21
sI12
I31
sI13
I17
sI14
I18
sI15
I6
sI16
I17
sI17
I29
sI18
I22
sI21
I17
sI23
I12
sI24
I11
sI25
I11
sI26
I9
sI27
I9
sI28
I8
sI29
I18
sI30
I11
sI31
I17
sI32
I11
sI33
I11
sI34
I18
sI35
I11
sI36
I12
sI37
I14
sI38
I10
sI39
I17
sI44
I39
ssI6
(dp361
I3
I42
sI4
I18
sI6
I7
sI7
I9
sI8
I39
sI9
I31
sI10
I27
sI11
I24
sI12
I13
sI13
I44
sI14
I22
sI15
I18
sI16
I8
sI17
I28
sI18
I37
sI23
I14
sI24
I18
sI25
I12
sI26
I17
sI27
I11
sI28
I14
sI29
I10
sI30
I10
sI31
I44
sI32
I12
sI33
I12
sI34
I17
sI35
I12
sI36
I14
sI37
I44
sI38
I11
sI39
I44
sI42
I12
sI44
I34
ssI7
(dp362
I3
I45
sI4
I5
sI5
I3
sI6
I9
sI8
I32
sI9
I25
sI10
I38
sI11
I31
sI12
I37
sI13
I8
sI14
I37
sI15
I40
sI16
I9
sI17
I22
sI18
I38
sI23
I17
sI24
I17
sI25
I14
sI26
I10
sI27
I17
sI28
I9
sI29
I11
sI30
I17
sI31
I18
sI32
I17
sI33
I17
sI34
I44
sI35
I14
sI36
I18
sI37
I17
sI38
I12
sI39
I12
sI40
I9
sI44
I3
sI45
I12
ssI8
(dp363
I1
I3
sI3
I12
sI4
I1
sI5
I4
sI6
I15
sI8
I22
sI9
I21
sI10
I12
sI11
I30
sI12
I15
sI13
I9
sI14
I6
sI15
I8
sI16
I10
sI17
I6
sI18
I4
sI21
I12
sI23
I18
sI25
I18
sI26
I11
sI27
I44
sI28
I12
sI29
I17
sI30
I12
sI32
I18
sI33
I18
sI35
I18
sI37
I18
sI38
I18
sI39
I18
sI44
I5
ssI9
(dp364
I3
I44
sI4
I20
sI6
I17
sI7
I6
sI8
I36
sI9
I22
sI10
I11
sI11
I44
sI12
I30
sI13
I10
sI14
I8
sI15
I9
sI16
I11
sI17
I21
sI18
I7
sI19
I3
sI20
I19
sI21
I11
sI26
I12
sI28
I17
sI30
I9
sI36
I17
sI44
I12
sssI23
(dp365
I1
(dp366
I1
I5
sI2
I1
sI3
I44
sI4
I2
sI5
I44
sI6
I18
sI7
I44
sI8
I33
sI9
I7
sI10
I26
sI11
I22
sI12
I23
sI13
I12
sI14
I25
sI15
I44
sI16
I44
sI17
I27
sI18
I33
sI19
I20
sI20
I3
sI21
I8
sI22
I17
sI24
I8
sI25
I44
sI26
I12
sI27
I12
sI28
I8
sI29
I18
sI30
I8
sI31
I8
sI32
I8
sI33
I26
sI34
I8
sI35
I44
sI36
I8
sI37
I8
sI38
I8
sI39
I8
sI40
I11
sI41
I3
sI42
I3
sI43
I3
sI44
I26
sI45
I3
sI46
I4
ssI2
(dp367
I1
I4
sI3
I1
sI4
I42
sI5
I4
sI6
I10
sI7
I6
sI8
I25
sI9
I29
sI10
I22
sI11
I30
sI12
I21
sI13
I18
sI14
I44
sI15
I17
sI16
I6
sI17
I22
sI18
I35
sI19
I3
sI20
I4
sI21
I44
sI22
I14
sI24
I9
sI25
I17
sI26
I33
sI27
I18
sI28
I9
sI29
I17
sI30
I44
sI31
I9
sI32
I44
sI33
I8
sI34
I9
sI35
I14
sI36
I9
sI37
I9
sI38
I44
sI39
I9
sI40
I14
sI41
I4
sI42
I44
sI43
I4
sI44
I23
sI45
I4
ssI3
(dp368
I2
I4
sI3
I2
sI4
I8
sI6
I13
sI7
I11
sI8
I37
sI9
I31
sI10
I34
sI11
I38
sI12
I36
sI13
I17
sI14
I23
sI15
I6
sI16
I8
sI17
I33
sI18
I14
sI21
I9
sI22
I8
sI24
I11
sI25
I8
sI26
I9
sI27
I8
sI28
I10
sI29
I8
sI30
I12
sI31
I44
sI32
I9
sI33
I18
sI34
I44
sI35
I8
sI36
I14
sI37
I14
sI38
I17
sI39
I30
sI40
I15
sI42
I4
sI44
I14
ssI4
(dp369
I1
I2
sI2
I3
sI3
I19
sI4
I46
sI5
I1
sI6
I16
sI7
I17
sI8
I22
sI9
I21
sI10
I44
sI11
I7
sI12
I5
sI13
I6
sI14
I18
sI15
I40
sI16
I17
sI17
I35
sI18
I23
sI19
I4
sI20
I19
sI21
I12
sI22
I12
sI24
I12
sI25
I9
sI26
I10
sI27
I9
sI28
I11
sI29
I44
sI30
I17
sI31
I11
sI32
I10
sI33
I9
sI34
I10
sI35
I18
sI36
I44
sI37
I44
sI38
I9
sI39
I11
sI40
I9
sI44
I35
sI46
I44
ssI5
(dp370
I3
I5
sI4
I12
sI5
I12
sI6
I7
sI7
I9
sI8
I27
sI9
I30
sI10
I17
sI11
I23
sI12
I44
sI13
I11
sI14
I28
sI15
I9
sI16
I18
sI17
I24
sI18
I26
sI21
I11
sI22
I9
sI24
I44
sI25
I11
sI26
I11
sI27
I17
sI28
I17
sI29
I9
sI30
I18
sI31
I12
sI32
I11
sI33
I11
sI34
I12
sI35
I9
sI36
I11
sI37
I18
sI38
I10
sI39
I12
sI44
I13
ssI6
(dp371
I3
I42
sI4
I18
sI6
I14
sI7
I18
sI8
I32
sI9
I25
sI10
I27
sI11
I15
sI12
I39
sI13
I44
sI14
I8
sI15
I18
sI16
I9
sI17
I23
sI18
I36
sI21
I18
sI22
I10
sI24
I17
sI25
I14
sI26
I17
sI27
I11
sI28
I12
sI29
I10
sI30
I39
sI31
I18
sI32
I17
sI33
I12
sI34
I17
sI35
I11
sI36
I17
sI37
I11
sI38
I11
sI39
I44
sI42
I12
sI44
I7
ssI7
(dp372
I3
I45
sI4
I5
sI5
I3
sI6
I9
sI7
I12
sI8
I26
sI9
I23
sI10
I6
sI11
I28
sI12
I14
sI13
I8
sI14
I6
sI15
I10
sI16
I10
sI17
I6
sI18
I4
sI22
I11
sI24
I18
sI25
I12
sI26
I44
sI27
I10
sI28
I44
sI29
I11
sI30
I9
sI32
I12
sI33
I17
sI34
I18
sI35
I12
sI36
I12
sI37
I12
sI38
I12
sI39
I17
sI44
I3
sI45
I12
ssI8
(dp373
I1
I3
sI3
I12
sI4
I1
sI6
I15
sI8
I23
sI9
I32
sI10
I12
sI11
I21
sI12
I31
sI13
I9
sI14
I40
sI15
I8
sI16
I11
sI17
I26
sI18
I16
sI21
I17
sI22
I44
sI25
I18
sI26
I8
sI27
I44
sI28
I18
sI29
I12
sI30
I10
sI31
I17
sI32
I18
sI33
I44
sI35
I17
sI36
I18
sI37
I17
sI38
I18
sI39
I18
sI40
I17
sI44
I15
sssI24
(dp374
I1
(dp375
I1
I5
sI2
I1
sI3
I5
sI4
I2
sI5
I44
sI6
I10
sI7
I44
sI8
I25
sI9
I23
sI10
I34
sI11
I44
sI12
I21
sI13
I12
sI14
I23
sI15
I44
sI16
I12
sI17
I22
sI18
I24
sI19
I20
sI20
I3
sI21
I18
sI22
I18
sI23
I44
sI25
I44
sI26
I33
sI27
I8
sI28
I18
sI29
I18
sI30
I8
sI31
I18
sI32
I44
sI33
I44
sI34
I18
sI35
I8
sI36
I18
sI37
I8
sI38
I44
sI39
I8
sI40
I9
sI41
I3
sI42
I4
sI43
I3
sI44
I36
sI45
I3
sI46
I4
ssI2
(dp376
I1
I2
sI2
I3
sI3
I42
sI4
I42
sI5
I4
sI6
I18
sI7
I11
sI8
I22
sI9
I32
sI10
I22
sI11
I21
sI12
I24
sI13
I11
sI14
I25
sI15
I6
sI16
I44
sI17
I33
sI18
I34
sI19
I3
sI20
I4
sI21
I17
sI22
I12
sI23
I9
sI25
I17
sI26
I9
sI27
I9
sI28
I44
sI29
I8
sI30
I44
sI31
I44
sI32
I18
sI33
I18
sI34
I12
sI35
I9
sI36
I8
sI37
I9
sI38
I9
sI39
I30
sI40
I11
sI41
I4
sI42
I12
sI43
I4
sI44
I22
sI45
I4
ssI3
(dp377
I3
I45
sI4
I8
sI5
I12
sI6
I13
sI7
I17
sI8
I44
sI9
I25
sI10
I44
sI11
I22
sI12
I15
sI13
I17
sI14
I35
sI15
I18
sI16
I6
sI17
I26
sI18
I21
sI19
I4
sI20
I19
sI21
I44
sI22
I44
sI23
I12
sI25
I14
sI26
I8
sI27
I10
sI28
I8
sI29
I9
sI30
I39
sI31
I8
sI32
I8
sI33
I8
sI34
I44
sI35
I11
sI36
I9
sI37
I11
sI38
I10
sI39
I9
sI40
I14
sI42
I44
sI44
I24
sI45
I12
ssI4
(dp378
I1
I4
sI3
I1
sI4
I46
sI6
I11
sI7
I12
sI8
I36
sI9
I24
sI10
I27
sI11
I30
sI12
I13
sI13
I44
sI14
I28
sI15
I8
sI16
I8
sI17
I35
sI18
I38
sI21
I8
sI22
I8
sI23
I14
sI25
I9
sI26
I10
sI27
I11
sI28
I17
sI29
I10
sI30
I17
sI31
I9
sI32
I9
sI33
I9
sI34
I8
sI35
I18
sI36
I44
sI37
I18
sI38
I12
sI39
I11
sI40
I15
sI44
I9
sI46
I44
ssI5
(dp379
I1
I3
sI2
I4
sI3
I2
sI4
I18
sI5
I1
sI6
I16
sI7
I9
sI8
I33
sI9
I29
sI10
I28
sI11
I24
sI12
I5
sI13
I18
sI14
I44
sI15
I17
sI16
I17
sI17
I21
sI18
I23
sI21
I11
sI22
I9
sI23
I11
sI25
I11
sI26
I44
sI27
I12
sI28
I11
sI29
I17
sI30
I18
sI31
I11
sI32
I10
sI33
I26
sI34
I9
sI35
I44
sI36
I11
sI37
I12
sI38
I11
sI39
I12
sI44
I10
ssI6
(dp380
I3
I12
sI4
I12
sI6
I14
sI7
I18
sI8
I24
sI9
I38
sI10
I17
sI11
I23
sI12
I23
sI13
I6
sI14
I40
sI15
I40
sI16
I18
sI17
I38
sI18
I25
sI21
I9
sI22
I10
sI23
I8
sI25
I8
sI26
I11
sI27
I44
sI28
I9
sI29
I11
sI30
I9
sI31
I12
sI32
I11
sI33
I11
sI34
I10
sI35
I12
sI36
I12
sI37
I44
sI38
I8
sI39
I17
sI40
I17
sI44
I18
ssI7
(dp381
I3
I44
sI4
I5
sI5
I3
sI6
I9
sI7
I6
sI8
I26
sI9
I31
sI10
I26
sI11
I25
sI12
I42
sI13
I8
sI14
I6
sI15
I11
sI16
I9
sI17
I24
sI18
I27
sI21
I12
sI22
I11
sI23
I18
sI25
I12
sI26
I18
sI27
I17
sI28
I10
sI29
I44
sI30
I10
sI31
I17
sI32
I12
sI33
I12
sI34
I17
sI35
I14
sI36
I14
sI37
I14
sI38
I17
sI39
I18
sI42
I3
sI44
I23
sssI25
(dp382
I1
(dp383
I1
I5
sI2
I1
sI3
I44
sI4
I2
sI5
I44
sI6
I10
sI7
I44
sI8
I33
sI9
I7
sI10
I26
sI11
I22
sI12
I25
sI13
I12
sI14
I44
sI15
I12
sI16
I12
sI17
I27
sI18
I33
sI19
I20
sI20
I3
sI21
I8
sI22
I17
sI23
I18
sI24
I8
sI26
I12
sI27
I12
sI28
I44
sI29
I18
sI30
I8
sI31
I8
sI32
I8
sI33
I26
sI34
I8
sI35
I44
sI36
I8
sI37
I8
sI38
I8
sI39
I8
sI40
I11
sI41
I3
sI42
I4
sI43
I3
sI44
I33
sI45
I3
sI46
I4
ssI2
(dp384
I1
I2
sI2
I3
sI3
I5
sI4
I42
sI5
I12
sI6
I18
sI7
I6
sI8
I22
sI9
I31
sI10
I22
sI11
I30
sI12
I36
sI13
I18
sI14
I28
sI15
I44
sI16
I44
sI17
I22
sI18
I25
sI19
I3
sI20
I4
sI21
I9
sI22
I44
sI23
I8
sI24
I9
sI26
I44
sI27
I8
sI28
I18
sI29
I8
sI30
I44
sI31
I44
sI32
I9
sI33
I9
sI34
I9
sI35
I8
sI36
I14
sI37
I9
sI38
I9
sI39
I30
sI40
I14
sI41
I4
sI42
I44
sI43
I4
sI44
I28
sI45
I4
ssI3
(dp385
I3
I42
sI4
I46
sI5
I4
sI6
I13
sI7
I9
sI8
I37
sI9
I23
sI10
I34
sI11
I38
sI12
I21
sI13
I17
sI14
I23
sI15
I17
sI16
I6
sI17
I33
sI18
I35
sI21
I44
sI22
I8
sI23
I44
sI24
I11
sI26
I33
sI27
I18
sI28
I8
sI29
I44
sI30
I39
sI31
I9
sI32
I44
sI33
I8
sI34
I44
sI35
I14
sI36
I9
sI37
I14
sI38
I44
sI39
I9
sI40
I15
sI42
I12
sI44
I25
sI46
I44
ssI4
(dp386
I1
I4
sI3
I1
sI4
I8
sI5
I1
sI6
I16
sI7
I11
sI8
I39
sI9
I21
sI10
I44
sI11
I25
sI12
I5
sI13
I6
sI14
I18
sI15
I6
sI16
I17
sI17
I35
sI18
I23
sI21
I12
sI22
I10
sI23
I11
sI24
I12
sI26
I9
sI27
I9
sI28
I9
sI29
I9
sI30
I9
sI31
I11
sI32
I10
sI33
I11
sI34
I12
sI35
I18
sI36
I44
sI37
I44
sI38
I10
sI39
I44
sI44
I11
ssI5
(dp387
I2
I4
sI3
I2
sI4
I12
sI6
I7
sI7
I17
sI8
I30
sI9
I29
sI10
I27
sI11
I7
sI12
I29
sI13
I44
sI14
I25
sI15
I18
sI16
I8
sI17
I24
sI18
I14
sI21
I11
sI22
I11
sI23
I9
sI24
I44
sI26
I10
sI27
I11
sI28
I10
sI29
I17
sI30
I10
sI31
I12
sI32
I11
sI33
I12
sI34
I17
sI35
I9
sI36
I11
sI37
I18
sI38
I11
sI39
I11
sI44
I37
ssI6
(dp388
I3
I19
sI4
I18
sI6
I9
sI7
I12
sI8
I34
sI9
I25
sI10
I28
sI11
I15
sI12
I42
sI13
I9
sI14
I6
sI15
I40
sI16
I18
sI17
I26
sI18
I22
sI19
I4
sI20
I19
sI21
I18
sI22
I9
sI23
I12
sI24
I17
sI26
I8
sI27
I10
sI28
I11
sI29
I10
sI30
I11
sI31
I17
sI32
I12
sI33
I17
sI34
I10
sI35
I11
sI36
I12
sI37
I11
sI38
I17
sI39
I12
sI40
I9
sI42
I3
sI44
I3
ssI7
(dp389
I3
I45
sI4
I5
sI5
I3
sI6
I14
sI7
I18
sI8
I27
sI9
I30
sI10
I12
sI11
I21
sI12
I14
sI13
I11
sI14
I40
sI15
I9
sI16
I9
sI17
I25
sI18
I13
sI21
I17
sI22
I12
sI23
I14
sI24
I18
sI26
I11
sI27
I17
sI28
I12
sI29
I11
sI30
I18
sI31
I18
sI32
I17
sI33
I18
sI34
I18
sI35
I12
sI36
I17
sI37
I12
sI38
I18
sI39
I17
sI40
I17
sI44
I5
sI45
I12
ssI8
(dp390
I1
I3
sI3
I12
sI4
I1
sI6
I15
sI8
I25
sI9
I13
sI10
I17
sI11
I44
sI12
I44
sI13
I8
sI14
I8
sI15
I8
sI16
I10
sI17
I6
sI18
I38
sI22
I14
sI23
I17
sI26
I17
sI27
I44
sI28
I14
sI29
I12
sI30
I12
sI32
I18
sI33
I44
sI35
I17
sI36
I18
sI37
I17
sI38
I12
sI39
I18
sI44
I15
sssI26
(dp391
I1
(dp392
I1
I5
sI2
I1
sI3
I5
sI4
I2
sI5
I12
sI6
I10
sI7
I6
sI8
I25
sI9
I29
sI10
I29
sI11
I38
sI12
I26
sI13
I12
sI14
I28
sI15
I6
sI16
I12
sI17
I24
sI18
I29
sI21
I8
sI22
I8
sI23
I18
sI24
I44
sI25
I44
sI27
I8
sI28
I18
sI29
I12
sI30
I39
sI31
I8
sI32
I8
sI33
I8
sI34
I8
sI35
I8
sI36
I8
sI37
I8
sI38
I17
sI39
I9
sI40
I11
sI41
I3
sI42
I3
sI43
I3
sI44
I23
sI45
I3
sI46
I4
ssI2
(dp393
I1
I4
sI3
I1
sI4
I42
sI5
I44
sI6
I18
sI7
I17
sI8
I27
sI9
I32
sI10
I26
sI11
I7
sI12
I21
sI13
I18
sI14
I22
sI15
I10
sI16
I44
sI17
I27
sI18
I14
sI21
I44
sI22
I10
sI23
I8
sI24
I8
sI25
I8
sI27
I18
sI28
I44
sI29
I8
sI30
I9
sI31
I9
sI32
I44
sI33
I9
sI34
I9
sI35
I9
sI36
I9
sI37
I9
sI38
I9
sI39
I8
sI40
I14
sI41
I4
sI42
I44
sI43
I4
sI44
I14
sI45
I4
ssI3
(dp394
I2
I4
sI3
I2
sI4
I12
sI6
I13
sI7
I9
sI8
I33
sI9
I38
sI10
I22
sI11
I22
sI12
I35
sI13
I17
sI14
I25
sI15
I11
sI16
I6
sI17
I40
sI18
I35
sI21
I9
sI22
I18
sI23
I9
sI24
I9
sI25
I17
sI27
I9
sI28
I8
sI29
I9
sI30
I44
sI31
I11
sI32
I9
sI33
I44
sI34
I12
sI35
I44
sI36
I11
sI37
I11
sI38
I44
sI39
I11
sI40
I15
sI42
I4
sI44
I26
ssI4
(dp395
I3
I19
sI4
I8
sI6
I16
sI7
I11
sI8
I30
sI9
I27
sI10
I28
sI11
I26
sI12
I36
sI13
I6
sI14
I23
sI15
I17
sI16
I17
sI17
I30
sI18
I23
sI19
I4
sI20
I19
sI21
I11
sI22
I44
sI23
I11
sI24
I11
sI25
I9
sI27
I12
sI28
I11
sI29
I10
sI30
I18
sI31
I12
sI32
I10
sI33
I11
sI34
I17
sI35
I11
sI36
I18
sI37
I12
sI38
I10
sI39
I12
sI44
I35
ssI5
(dp396
I3
I20
sI4
I46
sI6
I7
sI7
I44
sI8
I24
sI9
I7
sI10
I30
sI11
I21
sI12
I39
sI13
I44
sI14
I35
sI15
I40
sI16
I18
sI17
I33
sI18
I36
sI20
I4
sI21
I17
sI22
I9
sI23
I12
sI24
I12
sI25
I11
sI27
I17
sI28
I9
sI29
I11
sI30
I11
sI32
I11
sI33
I26
sI34
I18
sI35
I17
sI36
I44
sI37
I14
sI38
I11
sI39
I17
sI40
I9
sI44
I39
sI46
I44
ssI6
(dp397
I1
I2
sI2
I3
sI3
I42
sI4
I5
sI5
I1
sI6
I9
sI7
I12
sI8
I39
sI9
I31
sI10
I27
sI11
I24
sI12
I13
sI13
I8
sI14
I18
sI15
I9
sI16
I8
sI17
I22
sI18
I26
sI21
I18
sI22
I14
sI23
I14
sI24
I18
sI25
I18
sI27
I11
sI28
I10
sI29
I17
sI30
I10
sI31
I44
sI32
I12
sI33
I12
sI34
I44
sI35
I12
sI36
I12
sI37
I18
sI38
I12
sI39
I44
sI42
I12
sI44
I25
ssI7
(dp398
I1
I3
sI3
I45
sI4
I1
sI6
I14
sI7
I18
sI8
I37
sI9
I21
sI10
I17
sI11
I31
sI12
I15
sI13
I10
sI14
I37
sI15
I18
sI16
I9
sI17
I26
sI18
I22
sI21
I12
sI22
I17
sI23
I44
sI24
I17
sI25
I12
sI27
I44
sI28
I12
sI29
I44
sI30
I12
sI31
I18
sI32
I17
sI33
I17
sI35
I14
sI36
I14
sI37
I17
sI38
I18
sI39
I18
sI44
I3
sI45
I12
ssI8
(dp399
I3
I12
sI4
I20
sI5
I4
sI6
I15
sI8
I26
sI9
I23
sI10
I12
sI11
I30
sI12
I31
sI13
I11
sI14
I40
sI15
I8
sI16
I10
sI17
I29
sI18
I39
sI19
I20
sI20
I3
sI22
I11
sI23
I17
sI25
I14
sI28
I14
sI29
I18
sI30
I8
sI31
I17
sI32
I18
sI33
I18
sI35
I18
sI36
I17
sI37
I44
sI39
I30
sI40
I17
sI44
I5
ssI9
(dp400
I3
I44
sI4
I19
sI5
I3
sI6
I17
sI8
I34
sI9
I26
sI10
I13
sI11
I15
sI12
I5
sI13
I9
sI14
I6
sI15
I44
sI16
I11
sI17
I38
sI18
I4
sI19
I3
sI22
I12
sI27
I10
sI28
I17
sI30
I17
sI34
I10
sI38
I8
sI44
I27
sssI27
(dp401
I1
(dp402
I1
I5
sI2
I1
sI3
I44
sI4
I2
sI5
I44
sI6
I18
sI7
I44
sI8
I33
sI9
I7
sI10
I27
sI11
I22
sI12
I21
sI13
I10
sI14
I44
sI15
I10
sI16
I6
sI17
I22
sI18
I28
sI19
I20
sI20
I3
sI21
I44
sI22
I44
sI23
I44
sI24
I9
sI25
I18
sI26
I18
sI28
I10
sI29
I18
sI30
I8
sI31
I8
sI32
I8
sI33
I44
sI34
I8
sI35
I44
sI36
I8
sI37
I8
sI38
I8
sI39
I8
sI40
I9
sI41
I3
sI42
I3
sI43
I3
sI44
I13
sI45
I3
sI46
I4
ssI2
(dp403
I1
I2
sI2
I3
sI3
I5
sI4
I42
sI5
I12
sI6
I10
sI7
I11
sI8
I37
sI9
I31
sI10
I26
sI11
I30
sI12
I44
sI13
I18
sI14
I22
sI15
I12
sI16
I18
sI17
I29
sI18
I15
sI19
I3
sI20
I4
sI21
I8
sI22
I10
sI23
I8
sI24
I11
sI25
I8
sI26
I12
sI28
I44
sI29
I12
sI30
I12
sI31
I44
sI32
I44
sI33
I9
sI34
I9
sI35
I8
sI36
I9
sI37
I14
sI38
I44
sI39
I30
sI40
I11
sI41
I4
sI42
I44
sI43
I4
sI44
I27
sI45
I4
ssI3
(dp404
I1
I4
sI3
I1
sI4
I8
sI5
I1
sI6
I13
sI7
I17
sI8
I22
sI9
I21
sI10
I22
sI11
I38
sI12
I27
sI13
I17
sI14
I23
sI15
I11
sI16
I8
sI17
I24
sI18
I33
sI21
I12
sI22
I12
sI23
I18
sI24
I44
sI25
I9
sI26
I44
sI28
I8
sI29
I8
sI30
I39
sI31
I9
sI32
I9
sI33
I17
sI34
I10
sI35
I9
sI36
I44
sI37
I9
sI38
I17
sI39
I9
sI40
I14
sI42
I4
sI44
I12
ssI4
(dp405
I2
I4
sI3
I2
sI4
I12
sI5
I4
sI6
I16
sI7
I18
sI8
I30
sI9
I23
sI10
I34
sI11
I7
sI12
I39
sI13
I6
sI14
I25
sI15
I6
sI16
I17
sI17
I33
sI18
I27
sI21
I9
sI22
I8
sI23
I17
sI24
I12
sI25
I44
sI26
I17
sI28
I9
sI29
I44
sI30
I10
sI31
I11
sI32
I10
sI33
I18
sI34
I44
sI35
I17
sI36
I11
sI37
I44
sI38
I9
sI39
I44
sI40
I15
sI44
I7
ssI5
(dp406
I3
I19
sI4
I46
sI6
I7
sI7
I9
sI8
I34
sI9
I29
sI10
I12
sI11
I27
sI12
I16
sI13
I11
sI14
I18
sI15
I18
sI16
I44
sI17
I35
sI18
I23
sI19
I4
sI20
I19
sI21
I11
sI22
I11
sI23
I11
sI24
I17
sI25
I11
sI26
I33
sI28
I12
sI29
I17
sI30
I44
sI31
I12
sI32
I11
sI33
I8
sI34
I17
sI35
I18
sI36
I12
sI37
I11
sI38
I10
sI39
I11
sI40
I17
sI44
I34
sI46
I44
ssI6
(dp407
I3
I42
sI4
I18
sI6
I14
sI7
I6
sI8
I25
sI9
I13
sI10
I17
sI11
I15
sI12
I13
sI13
I44
sI14
I28
sI15
I44
sI16
I9
sI17
I27
sI18
I7
sI22
I14
sI23
I9
sI24
I8
sI25
I17
sI26
I8
sI28
I17
sI29
I9
sI30
I9
sI31
I17
sI32
I12
sI33
I11
sI34
I12
sI35
I12
sI36
I17
sI37
I12
sI38
I11
sI39
I12
sI42
I12
sI44
I24
ssI7
(dp408
I3
I45
sI4
I5
sI5
I3
sI6
I15
sI7
I12
sI8
I27
sI9
I30
sI10
I6
sI11
I21
sI12
I15
sI13
I8
sI14
I35
sI15
I8
sI16
I10
sI17
I7
sI18
I35
sI21
I17
sI22
I17
sI23
I12
sI24
I18
sI25
I12
sI26
I9
sI28
I14
sI29
I10
sI30
I18
sI31
I18
sI32
I17
sI33
I12
sI34
I18
sI35
I11
sI36
I18
sI37
I17
sI38
I12
sI39
I17
sI44
I3
sI45
I12
ssI8
(dp409
I1
I3
sI3
I12
sI4
I1
sI6
I9
sI8
I36
sI9
I27
sI10
I28
sI11
I44
sI12
I36
sI13
I9
sI14
I6
sI15
I17
sI16
I11
sI17
I44
sI18
I22
sI21
I18
sI22
I9
sI23
I14
sI25
I14
sI26
I10
sI28
I11
sI29
I11
sI30
I11
sI32
I18
sI33
I26
sI35
I14
sI36
I14
sI37
I18
sI38
I18
sI39
I18
sI44
I21
sssI28
(dp410
I1
(dp411
I1
I5
sI2
I1
sI3
I1
sI4
I2
sI5
I44
sI6
I10
sI7
I6
sI8
I25
sI9
I29
sI10
I22
sI11
I38
sI12
I28
sI13
I10
sI14
I12
sI15
I6
sI16
I12
sI17
I33
sI18
I29
sI21
I8
sI22
I12
sI23
I18
sI24
I8
sI25
I44
sI26
I18
sI27
I8
sI29
I12
sI30
I39
sI31
I8
sI32
I8
sI33
I26
sI34
I8
sI35
I8
sI36
I8
sI37
I8
sI38
I17
sI39
I9
sI40
I11
sI41
I3
sI42
I3
sI43
I3
sI44
I23
sI45
I4
sI46
I4
ssI2
(dp412
I1
I2
sI2
I4
sI3
I2
sI4
I42
sI5
I1
sI6
I18
sI7
I17
sI8
I27
sI9
I32
sI10
I28
sI11
I7
sI12
I26
sI13
I6
sI14
I23
sI15
I12
sI16
I44
sI17
I24
sI18
I38
sI21
I9
sI22
I8
sI23
I44
sI24
I44
sI25
I18
sI26
I10
sI27
I44
sI29
I8
sI30
I18
sI31
I9
sI32
I44
sI33
I9
sI34
I9
sI35
I9
sI36
I9
sI37
I9
sI38
I12
sI39
I8
sI40
I14
sI41
I4
sI42
I44
sI43
I4
sI44
I25
ssI3
(dp413
I1
I4
sI2
I3
sI3
I19
sI4
I8
sI5
I3
sI6
I13
sI7
I9
sI8
I33
sI9
I38
sI10
I26
sI11
I22
sI12
I21
sI13
I9
sI14
I25
sI15
I10
sI16
I6
sI17
I37
sI18
I35
sI19
I4
sI20
I19
sI21
I44
sI22
I18
sI23
I8
sI24
I9
sI25
I17
sI26
I12
sI27
I9
sI29
I9
sI30
I9
sI31
I11
sI32
I9
sI33
I44
sI34
I10
sI35
I44
sI36
I11
sI37
I11
sI38
I44
sI39
I11
sI40
I15
sI42
I4
sI44
I28
ssI4
(dp414
I3
I20
sI4
I46
sI6
I16
sI7
I11
sI8
I24
sI9
I27
sI10
I29
sI11
I28
sI12
I35
sI13
I11
sI14
I44
sI15
I17
sI16
I17
sI17
I27
sI18
I13
sI20
I4
sI21
I18
sI22
I10
sI23
I9
sI24
I12
sI25
I8
sI26
I44
sI27
I18
sI29
I17
sI30
I44
sI31
I12
sI32
I10
sI33
I11
sI34
I12
sI35
I11
sI36
I12
sI37
I12
sI38
I8
sI39
I12
sI40
I17
sI44
I35
sI46
I44
ssI5
(dp415
I3
I5
sI4
I5
sI5
I12
sI6
I7
sI7
I44
sI8
I30
sI9
I7
sI10
I30
sI11
I21
sI12
I31
sI13
I17
sI14
I35
sI15
I40
sI16
I18
sI17
I29
sI18
I28
sI21
I17
sI22
I44
sI23
I11
sI24
I11
sI25
I9
sI26
I33
sI27
I10
sI29
I18
sI30
I11
sI31
I17
sI32
I11
sI33
I8
sI34
I17
sI35
I17
sI36
I14
sI37
I18
sI38
I9
sI39
I17
sI40
I9
sI44
I39
ssI6
(dp416
I1
I3
sI3
I42
sI4
I1
sI6
I11
sI7
I12
sI8
I39
sI9
I31
sI10
I12
sI11
I24
sI12
I37
sI13
I44
sI14
I28
sI15
I9
sI16
I8
sI17
I35
sI18
I14
sI22
I11
sI23
I12
sI24
I18
sI25
I11
sI26
I9
sI27
I12
sI29
I10
sI30
I10
sI31
I44
sI32
I18
sI33
I12
sI34
I18
sI35
I18
sI36
I17
sI37
I14
sI38
I10
sI39
I44
sI42
I12
sI44
I32
ssI7
(dp417
I3
I45
sI4
I20
sI6
I9
sI7
I18
sI8
I32
sI9
I21
sI10
I17
sI11
I31
sI12
I15
sI13
I8
sI14
I18
sI15
I18
sI16
I9
sI17
I28
sI18
I39
sI19
I20
sI20
I3
sI21
I12
sI22
I14
sI23
I14
sI24
I17
sI25
I12
sI26
I11
sI27
I17
sI29
I11
sI30
I8
sI31
I18
sI32
I17
sI33
I17
sI34
I44
sI35
I12
sI36
I18
sI37
I44
sI38
I11
sI39
I30
sI44
I3
sI45
I12
ssI8
(dp418
I3
I12
sI4
I19
sI5
I4
sI6
I14
sI8
I28
sI9
I13
sI10
I6
sI11
I15
sI12
I17
sI13
I18
sI14
I37
sI15
I44
sI16
I10
sI17
I26
sI18
I4
sI19
I3
sI22
I17
sI23
I17
sI25
I14
sI26
I8
sI29
I44
sI30
I17
sI32
I12
sI33
I18
sI35
I14
sI37
I17
sI38
I18
sI39
I18
sI44
I5
ssI9
(dp419
I3
I44
sI4
I45
sI6
I15
sI8
I36
sI9
I28
sI10
I27
sI11
I30
sI12
I36
sI13
I12
sI14
I6
sI15
I8
sI16
I11
sI17
I21
sI18
I36
sI21
I11
sI22
I9
sI26
I17
sI27
I11
sI30
I12
sI36
I44
sI44
I22
sI45
I3
sssI29
(dp420
I1
(dp421
I1
I5
sI2
I1
sI3
I44
sI4
I2
sI5
I44
sI6
I10
sI7
I6
sI8
I33
sI9
I23
sI10
I26
sI11
I22
sI12
I21
sI13
I12
sI14
I44
sI15
I12
sI16
I44
sI17
I22
sI18
I29
sI19
I20
sI20
I3
sI21
I44
sI22
I44
sI23
I44
sI24
I9
sI25
I18
sI26
I18
sI27
I18
sI28
I18
sI30
I8
sI31
I8
sI32
I8
sI33
I26
sI34
I8
sI35
I44
sI36
I8
sI37
I8
sI38
I44
sI39
I8
sI40
I11
sI41
I3
sI42
I3
sI43
I3
sI44
I28
sI45
I3
sI46
I4
ssI2
(dp422
I1
I4
sI2
I3
sI3
I1
sI4
I42
sI5
I1
sI6
I18
sI7
I44
sI8
I22
sI9
I7
sI10
I29
sI11
I30
sI12
I44
sI13
I10
sI14
I23
sI15
I44
sI16
I6
sI17
I27
sI18
I23
sI19
I3
sI20
I4
sI21
I8
sI22
I12
sI23
I11
sI24
I11
sI25
I8
sI26
I44
sI27
I12
sI28
I44
sI30
I12
sI31
I11
sI32
I9
sI33
I8
sI34
I9
sI35
I8
sI36
I9
sI37
I9
sI38
I9
sI39
I30
sI40
I14
sI41
I4
sI42
I44
sI43
I4
sI44
I13
sI45
I4
ssI3
(dp423
I1
I2
sI2
I4
sI3
I2
sI4
I8
sI5
I4
sI6
I13
sI7
I11
sI8
I25
sI9
I30
sI10
I22
sI11
I38
sI12
I29
sI13
I11
sI14
I18
sI15
I11
sI16
I8
sI17
I24
sI18
I33
sI21
I9
sI22
I14
sI23
I8
sI24
I44
sI25
I44
sI26
I17
sI27
I8
sI28
I8
sI30
I18
sI31
I12
sI32
I10
sI33
I17
sI34
I10
sI35
I9
sI36
I44
sI37
I44
sI38
I17
sI39
I11
sI40
I15
sI42
I4
sI44
I12
ssI4
(dp424
I3
I19
sI4
I46
sI6
I16
sI7
I12
sI8
I36
sI9
I31
sI10
I34
sI11
I15
sI12
I36
sI13
I18
sI14
I35
sI15
I17
sI16
I17
sI17
I33
sI18
I22
sI19
I4
sI20
I19
sI21
I11
sI22
I9
sI23
I9
sI24
I12
sI25
I9
sI26
I33
sI27
I9
sI28
I9
sI30
I39
sI31
I44
sI32
I44
sI33
I18
sI34
I44
sI35
I17
sI36
I14
sI37
I12
sI38
I10
sI39
I9
sI40
I17
sI44
I29
sI46
I44
ssI5
(dp425
I3
I5
sI4
I12
sI5
I12
sI6
I7
sI7
I9
sI8
I39
sI9
I29
sI10
I27
sI11
I7
sI12
I39
sI13
I6
sI14
I6
sI15
I6
sI16
I18
sI17
I7
sI18
I44
sI21
I12
sI22
I8
sI23
I12
sI24
I17
sI25
I11
sI26
I9
sI27
I11
sI28
I10
sI30
I9
sI31
I9
sI32
I11
sI33
I9
sI34
I12
sI35
I11
sI36
I11
sI37
I14
sI38
I11
sI39
I44
sI44
I31
ssI6
(dp426
I3
I42
sI4
I18
sI6
I9
sI7
I17
sI8
I37
sI9
I25
sI10
I28
sI11
I29
sI12
I13
sI13
I17
sI14
I37
sI15
I18
sI16
I9
sI17
I26
sI18
I25
sI21
I18
sI22
I10
sI23
I14
sI24
I18
sI25
I14
sI26
I8
sI27
I10
sI28
I11
sI30
I10
sI31
I18
sI32
I12
sI33
I11
sI34
I17
sI35
I12
sI36
I12
sI37
I11
sI38
I12
sI39
I12
sI42
I12
sI44
I3
ssI7
(dp427
I3
I45
sI4
I5
sI5
I3
sI6
I11
sI8
I27
sI9
I21
sI10
I17
sI11
I21
sI12
I15
sI13
I44
sI14
I25
sI15
I8
sI16
I10
sI17
I29
sI18
I4
sI21
I17
sI22
I11
sI23
I17
sI24
I8
sI25
I17
sI26
I10
sI27
I17
sI28
I12
sI30
I11
sI32
I17
sI33
I12
sI34
I18
sI35
I14
sI36
I17
sI37
I17
sI38
I18
sI39
I17
sI44
I24
sI45
I12
ssI8
(dp428
I1
I3
sI3
I12
sI4
I1
sI6
I14
sI7
I18
sI8
I29
sI9
I32
sI10
I12
sI11
I44
sI12
I31
sI13
I8
sI14
I8
sI15
I40
sI16
I11
sI17
I38
sI18
I38
sI22
I17
sI23
I18
sI25
I12
sI26
I11
sI27
I44
sI28
I14
sI30
I44
sI31
I17
sI32
I18
sI33
I44
sI35
I18
sI36
I18
sI37
I18
sI38
I8
sI39
I18
sI40
I9
sI44
I7
sssI30
(dp429
I1
(dp430
I1
I5
sI2
I1
sI3
I5
sI4
I2
sI5
I12
sI6
I10
sI7
I6
sI8
I25
sI9
I29
sI10
I29
sI11
I38
sI12
I30
sI13
I12
sI14
I28
sI15
I6
sI16
I12
sI17
I33
sI18
I29
sI19
I20
sI20
I3
sI21
I8
sI22
I8
sI23
I18
sI24
I8
sI25
I44
sI26
I18
sI27
I8
sI28
I18
sI29
I12
sI31
I8
sI32
I8
sI33
I26
sI34
I8
sI35
I8
sI36
I8
sI37
I8
sI38
I17
sI39
I8
sI40
I11
sI41
I3
sI42
I4
sI43
I3
sI44
I23
sI45
I3
sI46
I4
ssI2
(dp431
I1
I4
sI3
I1
sI4
I42
sI5
I4
sI6
I18
sI7
I11
sI8
I27
sI9
I32
sI10
I22
sI11
I22
sI12
I21
sI13
I18
sI14
I25
sI15
I11
sI16
I44
sI17
I40
sI18
I39
sI21
I44
sI22
I18
sI23
I8
sI24
I9
sI25
I18
sI26
I44
sI27
I44
sI28
I8
sI29
I8
sI31
I9
sI32
I44
sI33
I9
sI34
I9
sI35
I9
sI36
I9
sI37
I9
sI38
I8
sI39
I30
sI40
I15
sI41
I4
sI42
I44
sI43
I4
sI44
I25
sI45
I4
ssI3
(dp432
I2
I4
sI3
I2
sI4
I18
sI5
I44
sI6
I13
sI7
I12
sI8
I33
sI9
I38
sI10
I26
sI11
I30
sI12
I36
sI13
I11
sI14
I18
sI15
I18
sI16
I6
sI17
I24
sI18
I35
sI21
I9
sI22
I44
sI23
I9
sI24
I44
sI25
I8
sI26
I11
sI27
I9
sI28
I9
sI29
I9
sI31
I11
sI32
I9
sI33
I44
sI34
I17
sI35
I11
sI36
I18
sI37
I12
sI38
I44
sI39
I9
sI40
I14
sI44
I35
ssI4
(dp433
I1
I2
sI2
I3
sI3
I19
sI4
I8
sI5
I1
sI6
I16
sI7
I17
sI8
I39
sI9
I27
sI10
I28
sI11
I15
sI12
I5
sI13
I6
sI14
I35
sI15
I44
sI16
I17
sI17
I27
sI18
I30
sI19
I4
sI21
I11
sI22
I11
sI23
I11
sI24
I11
sI25
I9
sI26
I33
sI27
I18
sI28
I11
sI29
I10
sI31
I12
sI32
I18
sI33
I8
sI34
I18
sI35
I17
sI36
I11
sI37
I18
sI38
I9
sI39
I44
sI44
I32
ssI5
(dp434
I3
I20
sI4
I46
sI6
I7
sI7
I9
sI8
I32
sI9
I21
sI10
I30
sI11
I7
sI12
I35
sI13
I44
sI14
I22
sI15
I17
sI16
I8
sI17
I29
sI18
I38
sI20
I4
sI21
I12
sI22
I10
sI23
I12
sI24
I12
sI25
I11
sI26
I9
sI27
I11
sI28
I10
sI29
I18
sI31
I17
sI32
I17
sI33
I11
sI34
I44
sI35
I14
sI36
I12
sI37
I44
sI38
I12
sI39
I11
sI44
I15
sI46
I44
ssI6
(dp435
I3
I42
sI4
I12
sI6
I14
sI7
I18
sI8
I36
sI9
I13
sI10
I12
sI11
I28
sI12
I13
sI13
I8
sI14
I37
sI15
I40
sI16
I18
sI17
I30
sI18
I36
sI21
I18
sI22
I9
sI23
I14
sI24
I17
sI25
I12
sI26
I10
sI27
I12
sI28
I44
sI29
I11
sI31
I18
sI32
I10
sI33
I12
sI35
I12
sI36
I17
sI37
I17
sI38
I10
sI39
I12
sI40
I9
sI42
I12
sI44
I22
ssI7
(dp436
I3
I45
sI4
I5
sI5
I3
sI6
I9
sI7
I44
sI8
I37
sI9
I7
sI10
I17
sI11
I21
sI12
I37
sI13
I17
sI14
I23
sI15
I9
sI16
I9
sI17
I35
sI18
I14
sI21
I17
sI22
I12
sI23
I44
sI25
I14
sI26
I12
sI27
I17
sI28
I12
sI29
I17
sI32
I11
sI33
I17
sI35
I18
sI36
I14
sI37
I14
sI38
I11
sI39
I18
sI44
I30
sI45
I12
ssI8
(dp437
I1
I3
sI3
I12
sI4
I1
sI6
I15
sI8
I30
sI9
I31
sI10
I6
sI11
I24
sI12
I15
sI13
I10
sI14
I40
sI15
I8
sI16
I10
sI17
I37
sI18
I34
sI22
I14
sI23
I17
sI24
I18
sI25
I17
sI26
I17
sI28
I14
sI29
I44
sI31
I44
sI32
I12
sI33
I18
sI34
I12
sI35
I44
sI36
I44
sI37
I11
sI38
I18
sI39
I17
sI40
I17
sI44
I39
ssI9
(dp438
I3
I44
sI4
I20
sI6
I17
sI8
I34
sI9
I30
sI10
I13
sI11
I6
sI12
I42
sI13
I9
sI14
I6
sI15
I10
sI16
I11
sI17
I26
sI18
I4
sI19
I3
sI20
I19
sI22
I17
sI26
I8
sI27
I10
sI28
I17
sI34
I10
sI42
I3
sI44
I27
sssI31
(dp439
I1
(dp440
I1
I5
sI2
I1
sI3
I5
sI4
I2
sI5
I12
sI6
I10
sI7
I44
sI8
I44
sI9
I23
sI10
I34
sI11
I21
sI12
I31
sI13
I12
sI14
I23
sI15
I44
sI16
I12
sI17
I13
sI18
I34
sI19
I20
sI20
I3
sI21
I18
sI22
I8
sI23
I44
sI24
I44
sI25
I8
sI26
I44
sI27
I8
sI28
I18
sI29
I18
sI30
I8
sI32
I44
sI33
I44
sI34
I12
sI35
I8
sI36
I18
sI37
I8
sI38
I44
sI39
I8
sI40
I11
sI41
I3
sI42
I4
sI43
I3
sI44
I3
sI45
I3
sI46
I4
ssI2
(dp441
I1
I2
sI2
I3
sI3
I42
sI4
I42
sI5
I4
sI6
I18
sI7
I11
sI8
I25
sI9
I32
sI10
I22
sI11
I44
sI12
I21
sI13
I11
sI14
I35
sI15
I12
sI16
I44
sI17
I21
sI18
I23
sI19
I3
sI20
I4
sI21
I11
sI22
I14
sI23
I11
sI24
I8
sI25
I44
sI26
I33
sI27
I9
sI28
I44
sI29
I8
sI30
I44
sI32
I18
sI33
I8
sI34
I8
sI35
I11
sI36
I8
sI37
I9
sI38
I8
sI39
I30
sI40
I14
sI41
I4
sI42
I44
sI43
I4
sI44
I31
sI45
I4
ssI3
(dp442
I1
I4
sI3
I1
sI4
I46
sI5
I44
sI6
I13
sI7
I17
sI8
I22
sI9
I31
sI10
I44
sI11
I22
sI12
I13
sI13
I17
sI14
I25
sI15
I6
sI16
I6
sI17
I22
sI18
I22
sI19
I4
sI20
I19
sI21
I8
sI22
I9
sI23
I8
sI24
I9
sI25
I17
sI26
I9
sI27
I10
sI28
I8
sI29
I9
sI30
I39
sI32
I8
sI33
I9
sI34
I9
sI35
I9
sI36
I9
sI37
I18
sI38
I9
sI39
I9
sI40
I15
sI42
I12
sI44
I17
sI46
I44
ssI4
(dp443
I1
I3
sI2
I4
sI3
I2
sI4
I18
sI5
I1
sI6
I16
sI7
I12
sI8
I36
sI9
I7
sI10
I26
sI11
I31
sI12
I5
sI13
I10
sI14
I44
sI15
I17
sI16
I17
sI17
I25
sI18
I26
sI21
I9
sI22
I10
sI23
I9
sI24
I11
sI25
I9
sI26
I11
sI27
I12
sI28
I9
sI29
I10
sI30
I18
sI32
I9
sI33
I11
sI34
I10
sI35
I44
sI36
I44
sI37
I11
sI38
I10
sI39
I11
sI40
I17
sI44
I10
ssI5
(dp444
I3
I45
sI4
I8
sI6
I14
sI7
I18
sI8
I33
sI9
I29
sI10
I29
sI11
I30
sI12
I34
sI13
I6
sI14
I28
sI15
I18
sI16
I8
sI17
I24
sI18
I31
sI21
I12
sI22
I11
sI23
I12
sI24
I18
sI25
I11
sI26
I18
sI27
I44
sI28
I17
sI29
I17
sI30
I17
sI32
I10
sI33
I26
sI34
I17
sI35
I12
sI36
I11
sI37
I12
sI38
I11
sI39
I12
sI44
I18
sI45
I12
ssI6
(dp445
I3
I12
sI4
I12
sI6
I15
sI7
I9
sI8
I31
sI9
I25
sI10
I27
sI11
I15
sI12
I17
sI13
I8
sI14
I11
sI15
I8
sI16
I18
sI17
I26
sI18
I9
sI21
I44
sI22
I12
sI23
I14
sI24
I17
sI25
I14
sI26
I8
sI27
I11
sI28
I10
sI29
I11
sI30
I9
sI32
I11
sI33
I12
sI34
I18
sI35
I14
sI36
I12
sI37
I44
sI38
I12
sI39
I17
sI44
I24
ssI7
(dp446
I3
I44
sI4
I5
sI5
I3
sI6
I17
sI7
I6
sI8
I26
sI9
I13
sI10
I17
sI11
I6
sI12
I42
sI13
I18
sI14
I6
sI15
I40
sI16
I9
sI17
I31
sI18
I27
sI21
I17
sI22
I44
sI23
I18
sI24
I12
sI25
I12
sI26
I17
sI27
I17
sI28
I11
sI29
I44
sI30
I10
sI32
I12
sI33
I17
sI34
I44
sI35
I17
sI36
I14
sI37
I14
sI38
I17
sI39
I18
sI40
I9
sI42
I3
sI44
I26
sssI32
(dp447
I1
(dp448
I1
I5
sI2
I1
sI3
I44
sI4
I2
sI5
I44
sI6
I18
sI7
I44
sI8
I33
sI9
I7
sI10
I34
sI11
I22
sI12
I21
sI13
I10
sI14
I44
sI15
I12
sI16
I6
sI17
I32
sI18
I33
sI19
I20
sI20
I3
sI21
I44
sI22
I17
sI23
I44
sI24
I8
sI25
I18
sI26
I18
sI27
I8
sI28
I44
sI29
I18
sI30
I8
sI31
I8
sI33
I17
sI34
I17
sI35
I17
sI36
I8
sI37
I8
sI38
I8
sI39
I8
sI40
I11
sI41
I3
sI42
I3
sI43
I3
sI44
I34
sI45
I3
sI46
I4
ssI2
(dp449
I1
I2
sI2
I3
sI3
I5
sI4
I42
sI5
I12
sI6
I10
sI7
I6
sI8
I25
sI9
I13
sI10
I26
sI11
I30
sI12
I44
sI13
I18
sI14
I23
sI15
I44
sI16
I12
sI17
I27
sI18
I32
sI20
I4
sI21
I8
sI22
I8
sI23
I18
sI24
I9
sI25
I44
sI26
I12
sI27
I18
sI28
I8
sI29
I8
sI30
I44
sI31
I9
sI33
I9
sI34
I8
sI35
I44
sI36
I9
sI37
I9
sI38
I44
sI39
I11
sI40
I14
sI41
I4
sI42
I44
sI43
I4
sI44
I27
sI45
I4
ssI3
(dp450
I1
I4
sI3
I1
sI4
I8
sI5
I1
sI6
I13
sI7
I11
sI8
I30
sI9
I23
sI10
I32
sI11
I38
sI12
I39
sI13
I17
sI14
I22
sI15
I6
sI16
I18
sI17
I22
sI18
I35
sI21
I9
sI22
I10
sI23
I17
sI24
I11
sI25
I8
sI26
I33
sI27
I9
sI28
I9
sI29
I44
sI30
I10
sI31
I11
sI33
I8
sI34
I9
sI35
I14
sI36
I44
sI37
I44
sI38
I17
sI39
I44
sI40
I15
sI42
I4
sI44
I10
ssI4
(dp451
I2
I4
sI3
I2
sI4
I12
sI5
I4
sI6
I16
sI7
I17
sI8
I34
sI9
I25
sI10
I12
sI11
I7
sI12
I32
sI13
I6
sI14
I18
sI15
I18
sI16
I11
sI17
I29
sI18
I36
sI21
I11
sI22
I9
sI23
I8
sI24
I12
sI25
I14
sI26
I9
sI27
I10
sI28
I10
sI29
I12
sI30
I39
sI31
I12
sI33
I11
sI34
I10
sI35
I8
sI36
I17
sI37
I11
sI38
I9
sI39
I9
sI40
I17
sI44
I5
ssI5
(dp452
I3
I19
sI4
I46
sI6
I14
sI7
I12
sI8
I22
sI9
I31
sI10
I22
sI11
I21
sI12
I16
sI13
I44
sI14
I25
sI15
I8
sI16
I44
sI17
I24
sI18
I4
sI19
I4
sI21
I17
sI22
I12
sI23
I9
sI24
I44
sI25
I17
sI26
I10
sI27
I12
sI28
I11
sI29
I9
sI30
I12
sI31
I44
sI33
I12
sI34
I44
sI35
I9
sI36
I11
sI37
I12
sI38
I10
sI39
I30
sI44
I32
sI46
I44
ssI6
(dp453
I3
I42
sI4
I5
sI5
I3
sI6
I15
sI7
I18
sI8
I36
sI9
I30
sI10
I17
sI11
I32
sI12
I34
sI13
I8
sI14
I8
sI15
I11
sI16
I8
sI17
I33
sI18
I23
sI21
I12
sI22
I11
sI23
I11
sI24
I17
sI25
I9
sI26
I11
sI27
I44
sI28
I12
sI29
I10
sI30
I18
sI31
I17
sI33
I18
sI34
I18
sI35
I11
sI36
I12
sI37
I14
sI38
I11
sI39
I12
sI42
I12
sI44
I15
ssI7
(dp454
I1
I3
sI3
I45
sI4
I1
sI6
I17
sI8
I32
sI9
I29
sI10
I6
sI11
I44
sI12
I36
sI13
I9
sI14
I6
sI15
I17
sI16
I17
sI17
I26
sI18
I38
sI21
I18
sI22
I14
sI23
I12
sI25
I11
sI26
I8
sI27
I17
sI28
I14
sI29
I17
sI30
I9
sI31
I18
sI33
I44
sI35
I12
sI36
I14
sI37
I17
sI38
I12
sI39
I17
sI44
I22
sI45
I12
ssI8
(dp455
I3
I12
sI4
I20
sI6
I7
sI7
I9
sI8
I26
sI9
I32
sI10
I27
sI11
I24
sI12
I6
sI13
I11
sI14
I28
sI15
I40
sI16
I9
sI17
I40
sI18
I34
sI19
I3
sI20
I19
sI22
I44
sI23
I14
sI24
I18
sI25
I12
sI26
I44
sI27
I11
sI28
I17
sI29
I11
sI30
I11
sI33
I26
sI34
I12
sI35
I18
sI36
I18
sI37
I18
sI38
I18
sI39
I18
sI40
I9
sI44
I3
sssI33
(dp456
I1
(dp457
I1
I5
sI2
I1
sI3
I44
sI4
I2
sI5
I44
sI6
I18
sI7
I18
sI8
I25
sI9
I7
sI10
I26
sI11
I22
sI12
I21
sI13
I18
sI14
I44
sI15
I17
sI16
I6
sI17
I13
sI18
I33
sI19
I20
sI20
I3
sI21
I44
sI22
I17
sI23
I44
sI24
I9
sI25
I44
sI26
I18
sI27
I18
sI28
I44
sI29
I18
sI30
I8
sI31
I8
sI32
I44
sI34
I8
sI35
I44
sI36
I8
sI37
I8
sI38
I44
sI39
I8
sI40
I11
sI41
I3
sI42
I3
sI43
I3
sI44
I7
sI45
I3
sI46
I4
ssI2
(dp458
I1
I2
sI2
I3
sI3
I5
sI4
I42
sI5
I12
sI6
I13
sI7
I6
sI8
I37
sI9
I23
sI10
I34
sI11
I30
sI12
I44
sI13
I10
sI14
I22
sI15
I6
sI16
I17
sI17
I33
sI18
I7
sI20
I4
sI21
I8
sI22
I10
sI23
I17
sI24
I11
sI25
I8
sI26
I44
sI27
I8
sI28
I8
sI29
I8
sI30
I44
sI31
I11
sI32
I8
sI34
I17
sI35
I17
sI36
I9
sI37
I14
sI38
I8
sI39
I11
sI40
I14
sI41
I4
sI42
I44
sI43
I4
sI44
I34
sI45
I4
ssI3
(dp459
I1
I4
sI3
I1
sI4
I8
sI5
I1
sI6
I7
sI7
I9
sI8
I27
sI9
I13
sI10
I22
sI11
I33
sI12
I36
sI13
I11
sI14
I23
sI15
I11
sI16
I18
sI17
I40
sI18
I36
sI21
I9
sI22
I14
sI23
I18
sI24
I12
sI25
I11
sI26
I9
sI27
I17
sI28
I9
sI29
I44
sI30
I39
sI31
I9
sI32
I9
sI34
I9
sI35
I8
sI36
I17
sI37
I9
sI38
I9
sI39
I9
sI40
I15
sI42
I4
sI44
I31
ssI4
(dp460
I2
I4
sI3
I2
sI4
I12
sI5
I4
sI6
I14
sI7
I11
sI8
I22
sI9
I31
sI10
I17
sI11
I38
sI12
I33
sI13
I6
sI14
I25
sI15
I18
sI16
I9
sI17
I22
sI18
I26
sI21
I11
sI22
I12
sI23
I8
sI24
I17
sI25
I17
sI26
I12
sI27
I9
sI28
I10
sI29
I9
sI30
I18
sI31
I44
sI32
I10
sI34
I10
sI35
I9
sI36
I44
sI37
I44
sI38
I17
sI39
I30
sI40
I17
sI44
I10
ssI5
(dp461
I3
I19
sI4
I46
sI6
I15
sI7
I12
sI8
I14
sI9
I30
sI10
I12
sI11
I15
sI12
I16
sI13
I17
sI14
I18
sI15
I44
sI16
I44
sI17
I35
sI18
I4
sI19
I4
sI21
I12
sI22
I8
sI23
I9
sI24
I18
sI25
I12
sI26
I10
sI27
I10
sI28
I11
sI29
I10
sI30
I12
sI31
I12
sI32
I11
sI34
I12
sI35
I18
sI36
I11
sI37
I11
sI38
I10
sI39
I12
sI44
I33
sI46
I44
ssI6
(dp462
I3
I42
sI4
I5
sI5
I3
sI6
I16
sI7
I17
sI8
I26
sI9
I25
sI10
I6
sI11
I7
sI12
I13
sI13
I44
sI14
I28
sI15
I40
sI16
I8
sI17
I24
sI18
I16
sI21
I18
sI22
I9
sI23
I11
sI24
I8
sI25
I14
sI26
I33
sI27
I12
sI28
I17
sI29
I11
sI30
I9
sI31
I18
sI32
I12
sI34
I18
sI35
I11
sI36
I12
sI37
I18
sI38
I11
sI39
I17
sI40
I9
sI42
I12
sI44
I24
ssI7
(dp463
I1
I3
sI3
I45
sI4
I1
sI6
I17
sI7
I44
sI8
I33
sI9
I29
sI10
I27
sI11
I21
sI12
I15
sI13
I8
sI14
I6
sI15
I8
sI16
I10
sI17
I26
sI18
I6
sI21
I17
sI22
I11
sI23
I12
sI24
I44
sI25
I18
sI26
I8
sI27
I11
sI28
I12
sI29
I17
sI30
I11
sI32
I17
sI34
I44
sI35
I12
sI36
I14
sI37
I12
sI38
I18
sI39
I44
sI44
I21
sI45
I12
ssI8
(dp464
I3
I12
sI4
I20
sI6
I9
sI8
I30
sI9
I33
sI10
I28
sI11
I44
sI12
I31
sI13
I9
sI14
I8
sI15
I9
sI16
I11
sI17
I25
sI18
I38
sI19
I3
sI20
I19
sI22
I44
sI23
I14
sI25
I9
sI26
I11
sI27
I44
sI28
I18
sI29
I12
sI30
I10
sI31
I17
sI32
I18
sI35
I14
sI36
I18
sI37
I17
sI38
I12
sI39
I18
sI44
I15
sssI34
(dp465
I1
(dp466
I1
I5
sI2
I1
sI3
I44
sI4
I2
sI5
I44
sI6
I18
sI7
I44
sI8
I44
sI9
I23
sI10
I44
sI11
I44
sI12
I22
sI13
I12
sI14
I23
sI15
I12
sI16
I44
sI17
I34
sI18
I27
sI19
I20
sI20
I3
sI21
I18
sI22
I18
sI23
I17
sI24
I44
sI25
I44
sI26
I44
sI27
I17
sI28
I44
sI29
I8
sI30
I44
sI31
I18
sI32
I8
sI33
I8
sI35
I8
sI36
I18
sI37
I8
sI38
I8
sI39
I30
sI40
I9
sI41
I3
sI42
I3
sI43
I3
sI44
I17
sI45
I3
sI46
I4
ssI2
(dp467
I1
I2
sI2
I3
sI3
I5
sI4
I42
sI5
I12
sI6
I10
sI7
I11
sI8
I36
sI9
I13
sI10
I17
sI11
I21
sI12
I21
sI13
I18
sI14
I25
sI15
I6
sI16
I11
sI17
I25
sI18
I34
sI19
I3
sI20
I4
sI21
I44
sI22
I9
sI23
I8
sI24
I17
sI25
I9
sI26
I33
sI27
I8
sI28
I8
sI29
I18
sI30
I8
sI31
I44
sI32
I10
sI33
I44
sI35
I9
sI36
I44
sI37
I9
sI38
I44
sI39
I8
sI40
I11
sI41
I4
sI42
I44
sI43
I4
sI44
I13
sI45
I4
ssI3
(dp468
I1
I3
sI3
I42
sI4
I46
sI5
I1
sI6
I11
sI7
I9
sI8
I25
sI9
I22
sI10
I22
sI11
I22
sI12
I44
sI13
I6
sI14
I44
sI15
I18
sI16
I17
sI17
I30
sI18
I23
sI19
I4
sI20
I19
sI21
I9
sI22
I44
sI23
I11
sI24
I9
sI25
I18
sI26
I8
sI27
I9
sI28
I9
sI29
I9
sI30
I39
sI31
I8
sI32
I11
sI33
I9
sI35
I44
sI36
I8
sI37
I18
sI38
I9
sI39
I9
sI40
I14
sI42
I12
sI44
I34
sI46
I44
ssI4
(dp469
I1
I4
sI3
I1
sI4
I8
sI5
I4
sI6
I7
sI7
I12
sI8
I29
sI9
I32
sI10
I34
sI11
I30
sI12
I5
sI13
I17
sI14
I28
sI15
I44
sI16
I6
sI17
I24
sI18
I21
sI21
I8
sI22
I10
sI23
I9
sI24
I18
sI25
I8
sI26
I9
sI27
I10
sI28
I17
sI29
I10
sI30
I17
sI31
I9
sI32
I18
sI33
I11
sI35
I11
sI36
I9
sI37
I11
sI38
I10
sI39
I11
sI40
I15
sI42
I4
sI44
I5
ssI5
(dp470
I2
I4
sI3
I2
sI4
I12
sI6
I13
sI7
I17
sI8
I33
sI9
I25
sI10
I27
sI11
I23
sI12
I34
sI13
I44
sI14
I40
sI15
I11
sI16
I12
sI17
I33
sI18
I16
sI21
I11
sI22
I11
sI23
I12
sI24
I11
sI25
I14
sI26
I18
sI27
I11
sI28
I10
sI29
I11
sI30
I9
sI31
I11
sI32
I12
sI33
I18
sI35
I12
sI36
I11
sI37
I12
sI38
I11
sI39
I12
sI40
I17
sI44
I9
ssI6
(dp471
I3
I45
sI4
I18
sI6
I16
sI7
I18
sI8
I34
sI9
I29
sI10
I28
sI11
I24
sI12
I13
sI13
I8
sI14
I8
sI15
I8
sI16
I9
sI17
I35
sI18
I22
sI21
I12
sI22
I8
sI23
I14
sI24
I12
sI25
I11
sI26
I10
sI27
I12
sI28
I11
sI29
I17
sI30
I10
sI31
I12
sI32
I17
sI33
I12
sI35
I18
sI36
I12
sI37
I44
sI38
I12
sI39
I17
sI44
I14
sI45
I12
ssI7
(dp472
I3
I12
sI4
I5
sI5
I3
sI6
I9
sI7
I6
sI8
I12
sI9
I34
sI10
I30
sI11
I25
sI12
I36
sI13
I9
sI14
I6
sI15
I17
sI16
I18
sI17
I32
sI18
I24
sI21
I17
sI22
I12
sI23
I44
sI24
I8
sI25
I12
sI26
I11
sI27
I44
sI28
I18
sI29
I44
sI30
I11
sI31
I17
sI32
I9
sI33
I17
sI35
I14
sI36
I14
sI37
I14
sI38
I17
sI39
I18
sI44
I32
sssI35
(dp473
I1
(dp474
I1
I5
sI2
I1
sI3
I44
sI4
I2
sI5
I44
sI6
I18
sI7
I11
sI8
I33
sI9
I23
sI10
I22
sI11
I22
sI12
I35
sI13
I12
sI14
I44
sI15
I12
sI16
I12
sI17
I27
sI18
I33
sI19
I20
sI20
I3
sI21
I8
sI22
I17
sI23
I17
sI24
I9
sI25
I11
sI26
I18
sI27
I12
sI28
I44
sI29
I8
sI30
I8
sI31
I8
sI32
I8
sI33
I17
sI34
I17
sI36
I8
sI37
I8
sI38
I8
sI39
I8
sI40
I11
sI41
I3
sI42
I3
sI43
I3
sI44
I34
sI45
I3
sI46
I4
ssI2
(dp475
I1
I4
sI2
I3
sI3
I1
sI4
I42
sI5
I1
sI6
I10
sI7
I44
sI8
I37
sI9
I7
sI10
I34
sI11
I30
sI12
I21
sI13
I10
sI14
I22
sI15
I44
sI16
I44
sI17
I29
sI18
I14
sI20
I4
sI21
I44
sI22
I10
sI23
I8
sI24
I11
sI25
I12
sI26
I44
sI27
I8
sI28
I8
sI29
I12
sI30
I44
sI31
I9
sI32
I9
sI33
I9
sI34
I44
sI36
I9
sI37
I14
sI38
I9
sI39
I11
sI40
I14
sI41
I4
sI42
I44
sI43
I4
sI44
I35
sI45
I4
ssI3
(dp476
I1
I2
sI2
I4
sI3
I2
sI4
I8
sI5
I4
sI6
I13
sI7
I12
sI8
I22
sI9
I31
sI10
I26
sI11
I38
sI12
I36
sI13
I9
sI14
I23
sI15
I6
sI16
I6
sI17
I22
sI18
I35
sI21
I9
sI22
I44
sI23
I44
sI24
I12
sI25
I18
sI26
I12
sI27
I9
sI28
I18
sI29
I44
sI30
I12
sI31
I44
sI32
I10
sI33
I11
sI34
I8
sI36
I14
sI37
I9
sI38
I17
sI39
I30
sI40
I17
sI42
I4
sI44
I25
ssI4
(dp477
I3
I19
sI4
I46
sI6
I14
sI7
I18
sI8
I25
sI9
I21
sI10
I17
sI11
I35
sI12
I44
sI13
I11
sI14
I25
sI15
I11
sI16
I18
sI17
I40
sI18
I27
sI19
I4
sI21
I12
sI22
I8
sI23
I9
sI24
I17
sI25
I44
sI26
I17
sI27
I44
sI28
I9
sI29
I9
sI30
I39
sI31
I11
sI32
I44
sI33
I12
sI34
I9
sI36
I44
sI37
I44
sI38
I44
sI39
I9
sI40
I15
sI44
I11
sI46
I44
ssI5
(dp478
I3
I5
sI4
I12
sI5
I12
sI6
I16
sI7
I17
sI8
I27
sI9
I30
sI10
I44
sI11
I7
sI12
I13
sI13
I17
sI14
I37
sI15
I18
sI16
I11
sI17
I35
sI18
I25
sI21
I11
sI22
I11
sI23
I11
sI24
I18
sI25
I8
sI26
I33
sI27
I17
sI28
I10
sI29
I10
sI30
I18
sI31
I12
sI32
I11
sI33
I8
sI34
I10
sI36
I11
sI37
I11
sI38
I10
sI39
I12
sI44
I14
ssI6
(dp479
I3
I42
sI4
I5
sI5
I3
sI6
I7
sI7
I9
sI8
I32
sI9
I25
sI10
I6
sI11
I21
sI12
I39
sI13
I18
sI14
I35
sI15
I17
sI16
I8
sI17
I33
sI18
I22
sI21
I17
sI22
I9
sI23
I12
sI24
I44
sI25
I14
sI26
I8
sI27
I10
sI28
I11
sI29
I11
sI30
I9
sI31
I17
sI32
I17
sI33
I18
sI34
I12
sI36
I12
sI37
I12
sI38
I11
sI39
I44
sI42
I12
sI44
I7
ssI7
(dp480
I1
I3
sI3
I45
sI4
I1
sI6
I9
sI7
I6
sI8
I39
sI9
I35
sI10
I27
sI11
I44
sI12
I14
sI13
I6
sI14
I18
sI15
I40
sI16
I17
sI17
I25
sI18
I7
sI21
I18
sI22
I12
sI23
I14
sI25
I9
sI26
I9
sI27
I11
sI28
I12
sI29
I18
sI30
I10
sI31
I18
sI32
I12
sI33
I44
sI34
I18
sI36
I17
sI37
I17
sI38
I18
sI39
I18
sI40
I9
sI44
I21
sI45
I12
ssI8
(dp481
I3
I12
sI4
I20
sI6
I15
sI8
I35
sI9
I29
sI10
I12
sI11
I24
sI12
I15
sI13
I44
sI14
I6
sI15
I8
sI16
I9
sI17
I24
sI18
I38
sI19
I3
sI20
I19
sI22
I14
sI23
I18
sI24
I8
sI25
I17
sI26
I10
sI27
I18
sI28
I14
sI29
I17
sI30
I11
sI32
I18
sI33
I26
sI36
I18
sI37
I18
sI38
I12
sI39
I17
sI44
I24
sssI36
(dp482
I1
(dp483
I1
I5
sI2
I1
sI3
I44
sI4
I2
sI5
I44
sI6
I18
sI7
I6
sI8
I33
sI9
I23
sI10
I26
sI11
I22
sI12
I36
sI13
I12
sI14
I44
sI15
I44
sI16
I12
sI17
I27
sI18
I33
sI20
I4
sI21
I8
sI22
I17
sI23
I17
sI24
I9
sI25
I9
sI26
I12
sI27
I12
sI28
I44
sI29
I8
sI30
I8
sI31
I8
sI32
I8
sI33
I26
sI34
I8
sI35
I44
sI37
I8
sI38
I8
sI39
I8
sI40
I11
sI41
I3
sI42
I3
sI43
I3
sI44
I33
sI45
I3
sI46
I4
ssI2
(dp484
I1
I4
sI2
I3
sI3
I1
sI4
I8
sI5
I1
sI6
I10
sI7
I44
sI8
I37
sI9
I7
sI10
I22
sI11
I30
sI12
I21
sI13
I18
sI14
I23
sI15
I6
sI16
I44
sI17
I22
sI18
I36
sI21
I44
sI22
I44
sI23
I44
sI24
I11
sI25
I18
sI26
I44
sI27
I18
sI28
I18
sI29
I18
sI30
I44
sI31
I9
sI32
I9
sI33
I9
sI34
I9
sI35
I8
sI37
I14
sI38
I44
sI39
I11
sI40
I14
sI41
I4
sI42
I4
sI43
I4
sI44
I29
sI45
I4
ssI3
(dp485
I1
I2
sI2
I4
sI3
I2
sI4
I42
sI5
I3
sI6
I13
sI7
I11
sI8
I22
sI9
I31
sI10
I34
sI11
I38
sI12
I29
sI13
I17
sI14
I35
sI15
I12
sI16
I6
sI17
I33
sI18
I22
sI21
I9
sI22
I9
sI23
I8
sI24
I17
sI25
I11
sI26
I33
sI27
I8
sI28
I8
sI29
I44
sI30
I39
sI31
I44
sI32
I44
sI33
I8
sI34
I44
sI35
I11
sI37
I9
sI38
I17
sI39
I9
sI40
I15
sI42
I44
sI44
I36
ssI4
(dp486
I3
I19
sI4
I46
sI5
I4
sI6
I14
sI7
I17
sI8
I30
sI9
I29
sI10
I12
sI11
I7
sI12
I39
sI13
I6
sI14
I36
sI15
I17
sI16
I11
sI17
I23
sI18
I16
sI19
I4
sI20
I19
sI21
I11
sI22
I8
sI23
I14
sI24
I18
sI25
I12
sI26
I9
sI27
I9
sI28
I9
sI29
I17
sI30
I17
sI31
I11
sI32
I10
sI33
I11
sI34
I10
sI35
I9
sI37
I44
sI38
I9
sI39
I44
sI40
I17
sI44
I30
sI46
I44
ssI5
(dp487
I3
I5
sI4
I5
sI5
I12
sI6
I16
sI7
I12
sI8
I25
sI9
I25
sI10
I44
sI11
I36
sI12
I44
sI13
I11
sI14
I37
sI15
I40
sI16
I17
sI17
I35
sI18
I23
sI21
I12
sI22
I10
sI23
I11
sI24
I44
sI25
I14
sI26
I10
sI27
I10
sI28
I10
sI29
I9
sI30
I9
sI31
I12
sI32
I11
sI33
I12
sI34
I12
sI35
I18
sI37
I11
sI38
I10
sI39
I12
sI40
I9
sI44
I13
ssI6
(dp488
I1
I3
sI3
I42
sI4
I1
sI6
I7
sI7
I9
sI8
I27
sI9
I44
sI10
I27
sI11
I21
sI12
I15
sI13
I44
sI14
I18
sI15
I18
sI16
I18
sI17
I36
sI18
I25
sI21
I17
sI22
I11
sI23
I9
sI24
I8
sI25
I8
sI26
I11
sI27
I17
sI28
I11
sI29
I10
sI30
I18
sI31
I18
sI32
I12
sI33
I17
sI34
I17
sI35
I12
sI37
I12
sI38
I11
sI39
I30
sI42
I12
sI44
I24
ssI7
(dp489
I3
I45
sI4
I20
sI6
I9
sI7
I18
sI8
I24
sI9
I36
sI10
I17
sI11
I44
sI12
I14
sI13
I8
sI14
I6
sI15
I9
sI16
I8
sI17
I6
sI18
I38
sI19
I20
sI20
I3
sI21
I18
sI22
I12
sI23
I12
sI24
I12
sI25
I44
sI26
I17
sI27
I11
sI28
I12
sI29
I11
sI30
I10
sI32
I17
sI33
I18
sI34
I18
sI35
I14
sI37
I17
sI38
I12
sI39
I17
sI44
I26
sI45
I12
ssI8
(dp490
I3
I12
sI4
I19
sI6
I15
sI8
I36
sI9
I30
sI10
I6
sI11
I15
sI12
I31
sI13
I9
sI14
I25
sI15
I8
sI16
I9
sI17
I26
sI18
I4
sI19
I3
sI22
I14
sI23
I18
sI25
I17
sI26
I8
sI27
I44
sI28
I14
sI29
I12
sI30
I12
sI31
I17
sI32
I18
sI33
I44
sI35
I17
sI37
I18
sI38
I18
sI39
I18
sI44
I15
sssI37
(dp491
I1
(dp492
I1
I5
sI2
I1
sI3
I44
sI4
I2
sI5
I44
sI6
I10
sI7
I9
sI8
I33
sI9
I23
sI10
I34
sI11
I22
sI12
I21
sI13
I10
sI14
I44
sI15
I6
sI16
I44
sI17
I24
sI18
I33
sI19
I20
sI20
I3
sI21
I44
sI22
I17
sI23
I17
sI24
I44
sI25
I8
sI26
I18
sI27
I8
sI28
I44
sI29
I8
sI30
I39
sI31
I8
sI32
I8
sI33
I17
sI34
I44
sI35
I17
sI36
I8
sI38
I8
sI39
I9
sI40
I11
sI41
I3
sI42
I3
sI43
I3
sI44
I37
sI45
I3
sI46
I4
ssI2
(dp493
I1
I2
sI2
I3
sI3
I5
sI4
I42
sI5
I12
sI6
I13
sI7
I18
sI8
I14
sI9
I7
sI10
I22
sI11
I30
sI12
I13
sI13
I17
sI14
I23
sI15
I11
sI16
I6
sI17
I22
sI18
I37
sI19
I3
sI20
I4
sI21
I8
sI22
I44
sI23
I44
sI24
I9
sI25
I18
sI26
I33
sI27
I9
sI28
I18
sI29
I18
sI30
I44
sI31
I9
sI32
I44
sI33
I8
sI34
I8
sI35
I44
sI36
I44
sI38
I9
sI39
I8
sI40
I14
sI41
I4
sI42
I44
sI43
I4
sI44
I7
sI45
I4
ssI3
(dp494
I1
I4
sI3
I1
sI4
I46
sI5
I1
sI6
I18
sI7
I11
sI8
I25
sI9
I31
sI10
I17
sI11
I38
sI12
I44
sI13
I11
sI14
I6
sI15
I18
sI16
I17
sI17
I37
sI18
I25
sI21
I9
sI22
I8
sI23
I8
sI24
I11
sI25
I44
sI26
I17
sI27
I18
sI28
I8
sI29
I44
sI30
I17
sI31
I44
sI32
I9
sI33
I9
sI34
I9
sI35
I8
sI36
I11
sI38
I17
sI39
I30
sI40
I15
sI42
I4
sI44
I30
sI46
I44
ssI4
(dp495
I1
I3
sI2
I4
sI3
I2
sI4
I8
sI5
I4
sI6
I14
sI7
I12
sI8
I37
sI9
I25
sI10
I27
sI11
I15
sI12
I5
sI13
I6
sI14
I18
sI15
I44
sI16
I18
sI17
I26
sI18
I30
sI21
I11
sI22
I9
sI23
I9
sI24
I12
sI25
I14
sI26
I8
sI27
I11
sI28
I9
sI29
I9
sI30
I8
sI31
I11
sI32
I10
sI33
I11
sI34
I10
sI35
I9
sI36
I12
sI38
I10
sI39
I11
sI40
I17
sI44
I5
ssI5
(dp496
I3
I19
sI4
I12
sI6
I7
sI7
I17
sI8
I27
sI9
I30
sI10
I26
sI11
I7
sI12
I36
sI13
I44
sI14
I37
sI15
I17
sI16
I12
sI17
I27
sI18
I4
sI19
I4
sI20
I19
sI21
I12
sI22
I10
sI23
I12
sI24
I8
sI25
I9
sI26
I12
sI27
I12
sI28
I10
sI29
I10
sI30
I12
sI31
I12
sI32
I11
sI33
I12
sI34
I12
sI35
I11
sI36
I14
sI38
I11
sI39
I12
sI44
I24
ssI6
(dp497
I3
I42
sI4
I18
sI6
I9
sI7
I6
sI8
I32
sI9
I37
sI10
I28
sI11
I44
sI12
I31
sI13
I8
sI14
I8
sI15
I40
sI16
I8
sI17
I6
sI18
I7
sI21
I18
sI22
I11
sI23
I14
sI24
I17
sI25
I11
sI26
I9
sI27
I10
sI28
I11
sI29
I12
sI30
I9
sI31
I17
sI32
I17
sI33
I44
sI34
I17
sI35
I12
sI36
I17
sI38
I18
sI39
I17
sI40
I9
sI42
I12
sI44
I21
ssI7
(dp498
I3
I45
sI4
I44
sI6
I11
sI7
I44
sI8
I26
sI9
I29
sI10
I6
sI11
I37
sI12
I6
sI13
I9
sI14
I25
sI15
I9
sI16
I9
sI17
I33
sI18
I23
sI21
I17
sI22
I14
sI23
I11
sI25
I17
sI26
I44
sI27
I44
sI28
I12
sI29
I17
sI30
I10
sI31
I18
sI32
I12
sI33
I18
sI34
I18
sI35
I14
sI36
I18
sI38
I44
sI39
I44
sI44
I6
sI45
I12
ssI8
(dp499
I3
I12
sI4
I5
sI5
I3
sI6
I15
sI8
I22
sI9
I13
sI10
I29
sI11
I24
sI12
I37
sI13
I18
sI14
I36
sI15
I8
sI16
I10
sI17
I38
sI18
I38
sI22
I12
sI23
I18
sI24
I18
sI25
I12
sI26
I10
sI27
I17
sI28
I14
sI29
I11
sI30
I11
sI32
I18
sI33
I26
sI35
I18
sI36
I9
sI38
I12
sI39
I18
sI44
I3
sssI38
(dp500
I1
(dp501
I1
I5
sI2
I1
sI3
I44
sI4
I2
sI5
I44
sI6
I18
sI7
I11
sI8
I33
sI9
I23
sI10
I34
sI11
I44
sI12
I21
sI13
I10
sI14
I44
sI15
I12
sI16
I12
sI17
I38
sI18
I33
sI19
I20
sI20
I3
sI21
I44
sI22
I44
sI23
I17
sI24
I9
sI25
I9
sI26
I18
sI27
I8
sI28
I18
sI29
I8
sI30
I8
sI31
I8
sI32
I8
sI33
I17
sI34
I17
sI35
I17
sI36
I8
sI37
I8
sI39
I8
sI40
I11
sI41
I3
sI42
I3
sI43
I3
sI44
I34
sI45
I3
sI46
I4
ssI2
(dp502
I1
I2
sI2
I3
sI3
I5
sI4
I42
sI5
I12
sI6
I13
sI7
I18
sI8
I25
sI9
I7
sI10
I26
sI11
I38
sI12
I36
sI13
I17
sI14
I23
sI15
I6
sI16
I11
sI17
I22
sI18
I23
sI19
I3
sI20
I4
sI21
I8
sI22
I18
sI23
I11
sI24
I11
sI25
I44
sI26
I12
sI27
I9
sI28
I8
sI29
I18
sI30
I39
sI31
I9
sI32
I44
sI33
I9
sI34
I8
sI35
I44
sI36
I14
sI37
I9
sI39
I9
sI40
I14
sI41
I4
sI42
I44
sI43
I4
sI44
I7
sI45
I4
ssI3
(dp503
I1
I4
sI3
I1
sI4
I46
sI5
I1
sI6
I16
sI7
I12
sI8
I37
sI9
I25
sI10
I22
sI11
I22
sI12
I13
sI13
I44
sI14
I18
sI15
I17
sI16
I17
sI17
I23
sI18
I38
sI21
I9
sI22
I14
sI23
I14
sI24
I8
sI25
I14
sI26
I33
sI27
I10
sI28
I9
sI29
I44
sI30
I44
sI31
I11
sI32
I9
sI33
I8
sI34
I9
sI35
I8
sI36
I9
sI37
I14
sI39
I11
sI40
I15
sI44
I24
sI46
I44
ssI4
(dp504
I1
I3
sI2
I4
sI3
I2
sI4
I8
sI5
I4
sI6
I7
sI7
I9
sI8
I38
sI9
I31
sI10
I17
sI11
I15
sI12
I5
sI13
I6
sI14
I25
sI15
I44
sI16
I44
sI17
I26
sI18
I25
sI21
I11
sI22
I8
sI23
I8
sI24
I12
sI25
I8
sI26
I8
sI27
I11
sI28
I10
sI29
I9
sI30
I12
sI31
I44
sI32
I10
sI33
I11
sI34
I10
sI35
I9
sI36
I44
sI37
I44
sI39
I30
sI40
I17
sI44
I5
ssI5
(dp505
I3
I19
sI4
I12
sI6
I14
sI7
I17
sI8
I22
sI9
I13
sI10
I27
sI11
I30
sI12
I44
sI13
I18
sI14
I8
sI15
I18
sI16
I6
sI17
I27
sI18
I4
sI19
I4
sI20
I19
sI21
I12
sI22
I12
sI23
I9
sI24
I17
sI25
I11
sI26
I9
sI27
I12
sI28
I11
sI29
I10
sI30
I17
sI31
I12
sI32
I11
sI33
I12
sI34
I12
sI35
I11
sI36
I11
sI37
I11
sI39
I12
sI44
I38
ssI6
(dp506
I3
I42
sI4
I18
sI6
I9
sI7
I6
sI8
I27
sI9
I38
sI10
I6
sI11
I7
sI12
I14
sI13
I11
sI14
I6
sI15
I40
sI16
I18
sI17
I29
sI18
I7
sI21
I17
sI22
I9
sI23
I12
sI24
I44
sI25
I12
sI26
I10
sI27
I17
sI28
I12
sI29
I12
sI30
I9
sI31
I17
sI32
I12
sI33
I44
sI34
I18
sI35
I12
sI36
I12
sI37
I12
sI39
I17
sI40
I9
sI42
I12
sI44
I22
ssI7
(dp507
I3
I45
sI4
I44
sI6
I10
sI7
I44
sI8
I26
sI9
I30
sI10
I38
sI11
I24
sI12
I6
sI13
I8
sI14
I28
sI15
I11
sI16
I8
sI17
I33
sI18
I6
sI21
I18
sI22
I11
sI23
I44
sI24
I18
sI25
I18
sI26
I44
sI27
I18
sI28
I17
sI29
I11
sI30
I18
sI31
I18
sI32
I17
sI33
I18
sI34
I44
sI35
I14
sI36
I17
sI37
I17
sI39
I44
sI44
I6
sI45
I12
ssI8
(dp508
I3
I12
sI4
I5
sI5
I3
sI6
I15
sI8
I14
sI9
I32
sI10
I12
sI11
I28
sI12
I38
sI13
I9
sI14
I22
sI15
I8
sI16
I9
sI17
I6
sI18
I27
sI22
I10
sI23
I18
sI25
I17
sI26
I11
sI27
I44
sI28
I44
sI29
I17
sI30
I10
sI32
I18
sI33
I26
sI35
I18
sI36
I18
sI37
I18
sI39
I18
sI42
I4
sI44
I42
sssI39
(dp509
I1
(dp510
I1
I5
sI2
I1
sI3
I44
sI4
I2
sI5
I44
sI6
I18
sI7
I12
sI8
I33
sI9
I23
sI10
I22
sI11
I30
sI12
I22
sI13
I18
sI14
I44
sI15
I6
sI16
I11
sI17
I22
sI18
I39
sI19
I20
sI20
I3
sI21
I8
sI22
I44
sI23
I44
sI24
I9
sI25
I18
sI26
I18
sI27
I8
sI28
I18
sI29
I8
sI30
I18
sI31
I8
sI32
I8
sI33
I26
sI34
I8
sI35
I44
sI36
I8
sI37
I8
sI38
I8
sI40
I11
sI41
I3
sI42
I3
sI43
I3
sI44
I28
sI45
I3
sI46
I4
ssI2
(dp511
I1
I4
sI2
I3
sI3
I1
sI4
I42
sI5
I4
sI6
I10
sI7
I18
sI8
I25
sI9
I7
sI10
I34
sI11
I39
sI12
I25
sI13
I11
sI14
I35
sI15
I11
sI16
I12
sI17
I40
sI18
I13
sI19
I3
sI20
I4
sI21
I9
sI22
I8
sI23
I8
sI24
I11
sI25
I11
sI26
I44
sI27
I9
sI28
I8
sI29
I18
sI30
I8
sI31
I9
sI32
I44
sI33
I9
sI34
I44
sI35
I11
sI36
I9
sI37
I9
sI38
I9
sI40
I15
sI41
I4
sI42
I44
sI43
I4
sI44
I7
sI45
I4
ssI3
(dp512
I1
I2
sI2
I4
sI3
I2
sI4
I8
sI5
I1
sI6
I13
sI7
I6
sI8
I27
sI9
I21
sI10
I44
sI11
I15
sI12
I5
sI13
I17
sI14
I23
sI15
I44
sI16
I44
sI17
I39
sI18
I7
sI21
I12
sI22
I9
sI23
I18
sI24
I12
sI25
I9
sI26
I33
sI27
I17
sI28
I9
sI29
I44
sI30
I9
sI31
I11
sI32
I9
sI33
I8
sI34
I9
sI35
I17
sI36
I44
sI37
I44
sI38
I10
sI40
I14
sI42
I4
sI44
I35
ssI4
(dp513
I3
I19
sI4
I46
sI6
I16
sI7
I11
sI8
I30
sI9
I25
sI10
I17
sI11
I28
sI12
I7
sI13
I6
sI14
I37
sI15
I18
sI16
I17
sI17
I33
sI18
I23
sI19
I4
sI20
I19
sI21
I11
sI22
I10
sI23
I11
sI24
I17
sI25
I14
sI26
I8
sI27
I10
sI28
I44
sI29
I9
sI30
I39
sI31
I12
sI32
I10
sI33
I18
sI34
I12
sI35
I8
sI36
I11
sI37
I11
sI38
I11
sI40
I17
sI44
I30
sI46
I44
ssI5
(dp514
I3
I5
sI4
I12
sI5
I12
sI6
I14
sI7
I17
sI8
I39
sI9
I13
sI10
I6
sI11
I6
sI12
I21
sI13
I44
sI14
I18
sI15
I17
sI16
I6
sI17
I35
sI18
I25
sI21
I44
sI22
I11
sI23
I9
sI24
I8
sI25
I8
sI26
I9
sI27
I11
sI28
I10
sI29
I10
sI30
I10
sI31
I17
sI32
I11
sI33
I11
sI34
I17
sI35
I18
sI36
I12
sI37
I12
sI38
I12
sI44
I24
ssI6
(dp515
I3
I42
sI4
I18
sI6
I7
sI7
I9
sI8
I37
sI9
I31
sI10
I27
sI11
I22
sI12
I44
sI13
I12
sI14
I25
sI15
I40
sI16
I18
sI17
I13
sI18
I27
sI21
I17
sI22
I17
sI23
I12
sI24
I18
sI25
I44
sI26
I17
sI27
I44
sI28
I12
sI29
I11
sI30
I11
sI31
I44
sI32
I12
sI33
I12
sI34
I18
sI35
I9
sI36
I17
sI37
I14
sI38
I44
sI40
I9
sI42
I12
sI44
I39
ssI7
(dp516
I3
I45
sI4
I5
sI5
I3
sI6
I9
sI7
I44
sI8
I32
sI9
I39
sI10
I28
sI11
I44
sI12
I36
sI13
I8
sI14
I6
sI15
I9
sI16
I8
sI17
I24
sI18
I35
sI21
I18
sI22
I12
sI23
I14
sI24
I44
sI25
I12
sI26
I10
sI27
I18
sI28
I11
sI29
I12
sI30
I12
sI31
I18
sI32
I17
sI33
I17
sI35
I14
sI36
I14
sI37
I18
sI38
I18
sI44
I21
sI45
I12
ssI8
(dp517
I1
I3
sI3
I12
sI4
I1
sI6
I15
sI8
I34
sI9
I29
sI10
I26
sI11
I38
sI12
I39
sI13
I9
sI14
I8
sI15
I8
sI16
I9
sI17
I27
sI18
I4
sI22
I14
sI23
I17
sI25
I17
sI26
I12
sI27
I12
sI28
I14
sI29
I17
sI30
I44
sI32
I18
sI33
I44
sI34
I10
sI35
I12
sI36
I18
sI37
I17
sI38
I17
sI44
I34
sssI40
(dp518
I1
(dp519
I1
I2
sI2
I3
sI3
I44
sI4
I42
sI5
I4
sI6
I18
sI7
I44
sI8
I44
sI9
I23
sI10
I22
sI11
I44
sI12
I21
sI13
I12
sI14
I40
sI15
I44
sI16
I12
sI17
I23
sI18
I35
sI19
I20
sI20
I3
sI21
I18
sI22
I14
sI23
I14
sI24
I44
sI25
I44
sI26
I44
sI27
I8
sI28
I44
sI29
I18
sI30
I8
sI31
I18
sI32
I8
sI33
I44
sI34
I8
sI35
I14
sI36
I8
sI37
I18
sI38
I44
sI39
I8
sI41
I3
sI42
I44
sI43
I3
sI44
I23
sI45
I3
sI46
I4
ssI2
(dp520
I1
I4
sI2
I4
sI3
I42
sI4
I46
sI5
I44
sI6
I10
sI7
I11
sI8
I25
sI9
I25
sI10
I15
sI11
I21
sI12
I36
sI13
I18
sI14
I23
sI15
I40
sI16
I11
sI17
I22
sI18
I15
sI19
I3
sI20
I4
sI21
I44
sI22
I18
sI23
I44
sI24
I17
sI25
I18
sI26
I17
sI27
I9
sI28
I18
sI29
I8
sI30
I44
sI31
I44
sI32
I44
sI33
I9
sI34
I44
sI35
I8
sI36
I14
sI37
I8
sI38
I8
sI39
I30
sI41
I4
sI42
I12
sI43
I4
sI44
I28
sI45
I4
sI46
I44
ssI3
(dp521
I1
I3
sI3
I45
sI4
I18
sI5
I1
sI6
I13
sI7
I17
sI8
I36
sI9
I29
sI10
I34
sI11
I40
sI12
I34
sI13
I11
sI14
I44
sI15
I6
sI16
I44
sI17
I24
sI18
I23
sI19
I4
sI20
I19
sI21
I8
sI22
I8
sI23
I11
sI24
I18
sI25
I8
sI26
I33
sI27
I10
sI28
I8
sI29
I17
sI30
I18
sI31
I8
sI32
I9
sI33
I8
sI34
I18
sI35
I9
sI36
I44
sI37
I9
sI38
I9
sI39
I11
sI42
I3
sI44
I13
sI45
I12
ssI4
(dp522
I3
I5
sI4
I8
sI5
I12
sI6
I11
sI7
I9
sI8
I33
sI9
I40
sI10
I27
sI11
I22
sI12
I15
sI13
I6
sI14
I25
sI15
I17
sI16
I6
sI17
I25
sI18
I27
sI21
I9
sI22
I44
sI23
I8
sI24
I8
sI25
I9
sI26
I18
sI27
I17
sI28
I9
sI29
I9
sI30
I39
sI31
I9
sI32
I10
sI33
I26
sI34
I9
sI35
I17
sI36
I9
sI37
I11
sI38
I10
sI39
I9
sI42
I4
sI44
I35
ssI5
(dp523
I1
I5
sI2
I1
sI3
I12
sI4
I2
sI5
I3
sI6
I7
sI7
I12
sI8
I39
sI9
I31
sI10
I28
sI11
I30
sI12
I13
sI13
I17
sI14
I6
sI15
I18
sI16
I18
sI17
I40
sI18
I33
sI21
I11
sI22
I9
sI23
I9
sI24
I9
sI25
I11
sI26
I8
sI27
I44
sI28
I11
sI29
I10
sI30
I17
sI31
I17
sI32
I11
sI33
I17
sI34
I10
sI35
I44
sI36
I11
sI37
I12
sI38
I11
sI39
I44
sI44
I18
sssI41
(dp524
I1
(dp525
I1
I4
sI2
I4
sI3
I45
sI4
I41
sI5
I44
sI6
I13
sI7
I11
sI8
I44
sI9
I23
sI10
I22
sI11
I44
sI12
I45
sI13
I12
sI14
I23
sI15
I44
sI16
I44
sI17
I22
sI18
I34
sI19
I20
sI20
I3
sI21
I8
sI22
I44
sI23
I44
sI24
I44
sI25
I8
sI26
I33
sI27
I44
sI28
I18
sI29
I8
sI30
I8
sI31
I8
sI32
I8
sI33
I8
sI34
I12
sI35
I8
sI36
I18
sI37
I18
sI38
I8
sI39
I8
sI40
I9
sI42
I4
sI43
I3
sI44
I46
sI45
I4
sI46
I4
ssI2
(dp526
I1
I5
sI2
I3
sI3
I41
sI4
I46
sI5
I12
sI6
I11
sI7
I12
sI8
I33
sI9
I32
sI10
I44
sI11
I7
sI12
I42
sI13
I18
sI14
I18
sI15
I6
sI16
I6
sI17
I31
sI18
I38
sI19
I3
sI20
I4
sI21
I18
sI22
I8
sI23
I8
sI24
I8
sI25
I9
sI26
I44
sI27
I8
sI28
I8
sI29
I9
sI30
I18
sI31
I44
sI32
I18
sI33
I26
sI34
I8
sI35
I9
sI36
I8
sI37
I8
sI38
I12
sI39
I30
sI40
I11
sI42
I3
sI43
I4
sI44
I3
sI45
I3
sI46
I44
sssI42
(dp527
I1
(dp528
I1
I2
sI2
I3
sI3
I44
sI4
I46
sI5
I12
sI6
I13
sI7
I44
sI8
I44
sI9
I23
sI10
I44
sI11
I44
sI12
I21
sI13
I12
sI14
I23
sI15
I10
sI16
I6
sI17
I7
sI18
I7
sI19
I20
sI20
I3
sI21
I44
sI22
I44
sI23
I44
sI24
I44
sI25
I44
sI26
I17
sI27
I44
sI28
I18
sI29
I8
sI30
I18
sI31
I18
sI32
I8
sI33
I44
sI34
I44
sI35
I8
sI36
I8
sI37
I18
sI38
I8
sI39
I30
sI40
I9
sI41
I3
sI43
I3
sI44
I42
sI45
I3
sI46
I44
ssI2
(dp529
I1
I3
sI2
I4
sI3
I42
sI4
I18
sI5
I1
sI6
I18
sI7
I11
sI8
I25
sI9
I32
sI10
I26
sI11
I21
sI12
I16
sI13
I44
sI14
I44
sI15
I44
sI16
I44
sI17
I22
sI18
I34
sI19
I3
sI20
I4
sI21
I17
sI22
I18
sI23
I8
sI24
I17
sI25
I18
sI26
I12
sI27
I8
sI28
I8
sI29
I9
sI30
I44
sI31
I44
sI32
I18
sI33
I9
sI34
I12
sI35
I9
sI36
I9
sI37
I8
sI38
I9
sI39
I8
sI40
I11
sI41
I4
sI43
I4
sI44
I5
sI46
I4
ssI3
(dp530
I1
I4
sI3
I5
sI4
I42
sI5
I4
sI6
I10
sI7
I17
sI8
I39
sI9
I25
sI10
I22
sI11
I22
sI12
I45
sI13
I18
sI14
I25
sI15
I11
sI16
I12
sI17
I24
sI18
I4
sI19
I4
sI20
I19
sI21
I8
sI22
I17
sI23
I9
sI24
I18
sI25
I17
sI26
I44
sI27
I9
sI28
I9
sI29
I10
sI30
I8
sI31
I8
sI32
I9
sI33
I11
sI34
I8
sI35
I11
sI36
I11
sI37
I9
sI38
I10
sI39
I44
sI40
I14
sI44
I3
sI45
I4
ssI4
(dp531
I1
I5
sI2
I1
sI3
I45
sI4
I2
sI5
I44
sI6
I16
sI7
I9
sI8
I30
sI9
I29
sI10
I34
sI11
I30
sI12
I42
sI13
I6
sI14
I18
sI15
I6
sI16
I11
sI17
I27
sI18
I27
sI21
I9
sI22
I8
sI23
I11
sI24
I8
sI25
I8
sI26
I33
sI27
I12
sI28
I44
sI29
I17
sI30
I17
sI31
I9
sI32
I10
sI33
I8
sI34
I18
sI35
I44
sI36
I18
sI37
I11
sI38
I11
sI39
I9
sI40
I15
sI44
I12
sI45
I12
sssI43
(dp532
I1
(dp533
I1
I5
sI2
I4
sI3
I45
sI4
I43
sI5
I44
sI6
I13
sI7
I11
sI8
I44
sI9
I23
sI10
I22
sI11
I44
sI12
I45
sI13
I12
sI14
I23
sI15
I44
sI16
I44
sI17
I22
sI18
I34
sI19
I20
sI20
I3
sI21
I8
sI22
I44
sI23
I44
sI24
I44
sI25
I8
sI26
I33
sI27
I44
sI28
I18
sI29
I8
sI30
I8
sI31
I8
sI32
I8
sI33
I8
sI34
I12
sI35
I8
sI36
I18
sI37
I18
sI38
I8
sI39
I8
sI40
I9
sI41
I3
sI42
I4
sI44
I46
sI45
I4
sI46
I4
ssI2
(dp534
I1
I4
sI2
I3
sI3
I43
sI4
I2
sI5
I1
sI6
I11
sI7
I12
sI8
I33
sI9
I32
sI10
I44
sI11
I7
sI12
I42
sI13
I18
sI14
I18
sI15
I6
sI16
I6
sI17
I31
sI18
I38
sI19
I3
sI20
I4
sI21
I18
sI22
I8
sI23
I8
sI24
I8
sI25
I9
sI26
I44
sI27
I8
sI28
I8
sI29
I9
sI30
I39
sI31
I44
sI32
I18
sI33
I26
sI34
I8
sI35
I9
sI36
I8
sI37
I8
sI38
I12
sI39
I9
sI40
I11
sI41
I4
sI42
I3
sI44
I3
sI45
I3
sI46
I44
sssI44
(dp535
I1
(dp536
I1
I4
sI2
I3
sI3
I1
sI4
I8
sI5
I1
sI6
I13
sI7
I18
sI8
I6
sI9
I15
sI10
I16
sI11
I30
sI12
I16
sI13
I44
sI14
I22
sI15
I10
sI16
I6
sI17
I10
sI18
I13
sI21
I18
sI22
I10
sI23
I18
sI24
I8
sI25
I8
sI26
I33
sI27
I10
sI28
I8
sI29
I9
sI30
I18
sI31
I9
sI32
I18
sI33
I8
sI34
I10
sI35
I11
sI36
I9
sI37
I12
sI38
I18
sI39
I17
sI41
I3
sI42
I4
sI43
I3
sI46
I4
ssI2
(dp537
I1
I2
sI2
I4
sI3
I2
sI4
I12
sI5
I4
sI6
I15
sI8
I28
sI9
I25
sI10
I30
sI11
I24
sI12
I22
sI13
I6
sI14
I6
sI15
I11
sI16
I8
sI17
I23
sI18
I39
sI22
I11
sI23
I14
sI24
I18
sI25
I14
sI26
I9
sI27
I11
sI28
I10
sI30
I44
sI31
I11
sI33
I11
sI34
I12
sI35
I14
sI37
I14
sI39
I30
ssI3
(dp538
I1
I5
sI2
I1
sI3
I5
sI4
I2
sI5
I12
sI6
I7
sI7
I9
sI8
I14
sI9
I28
sI10
I13
sI11
I16
sI12
I29
sI13
I18
sI14
I28
sI15
I6
sI16
I10
sI17
I36
sI18
I35
sI22
I17
sI25
I18
sI26
I10
sI27
I17
sI28
I18
sI29
I10
sI30
I39
sI33
I18
sI34
I17
sI35
I44
sI36
I14
sI39
I9
ssI4
(dp539
I1
I3
sI3
I42
sI4
I1
sI6
I9
sI8
I15
sI9
I26
sI10
I22
sI11
I38
sI12
I26
sI13
I10
sI14
I18
sI15
I40
sI16
I11
sI17
I14
sI18
I36
sI22
I14
sI26
I11
sI28
I11
sI30
I10
sI36
I44
sI38
I17
sI39
I18
sI40
I9
sI42
I12
ssI5
(dp540
I32
I10
sI3
I19
sI4
I18
sI37
I44
sI6
I10
sI8
I13
sI9
I14
sI10
I28
sI11
I10
sI12
I32
sI13
I9
sI14
I25
sI15
I18
sI17
I40
sI18
I37
sI19
I4
sI20
I19
sI40
I15
sI25
I17
sI28
I14
sI30
I11
ssI6
(dp541
I32
I8
sI33
I26
sI35
I17
sI6
I16
sI8
I25
sI9
I30
sI10
I32
sI11
I15
sI12
I35
sI14
I35
sI15
I8
sI16
I12
sI17
I33
sI18
I23
sI23
I11
sI25
I44
sI26
I8
sI28
I17
sI30
I17
ssI7
(dp542
I37
I17
sI6
I14
sI8
I16
sI9
I23
sI10
I8
sI11
I29
sI12
I37
sI14
I37
sI15
I44
sI16
I9
sI17
I15
sI18
I14
sI23
I17
sI29
I8
ssI8
(dp543
I6
I18
sI8
I26
sI9
I10
sI10
I26
sI11
I8
sI12
I15
sI14
I8
sI15
I17
sI16
I18
sI17
I16
sI18
I44
sI26
I18
ssI9
(dp544
I36
I18
sI38
I8
sI6
I8
sI8
I27
sI9
I6
sI10
I27
sI11
I6
sI12
I36
sI14
I9
sI17
I38
sI18
I30
sI27
I44
sI30
I8
ssI10
(dp545
I32
I11
sI33
I44
sI36
I11
sI38
I11
sI39
I8
sI8
I33
sI9
I13
sI10
I38
sI11
I28
sI12
I39
sI13
I8
sI14
I36
sI17
I39
sI18
I32
sI28
I9
ssI11
(dp546
I34
I18
sI39
I44
sI8
I39
sI9
I22
sI10
I11
sI11
I27
sI12
I34
sI14
I11
sI17
I31
sI18
I24
sI22
I8
sI24
I11
sI27
I9
sI31
I8
ssI12
(dp547
I8
I23
sI9
I16
sI10
I9
sI11
I40
sI12
I18
sI14
I12
sI16
I44
sI17
I8
sI18
I10
sI40
I14
sI23
I9
ssI13
(dp548
I35
I9
sI37
I9
sI6
I11
sI8
I35
sI9
I29
sI10
I6
sI11
I37
sI12
I23
sI14
I40
sI15
I9
sI17
I6
sI18
I15
sI40
I17
sI23
I8
sI29
I44
ssI14
(dp549
I32
I44
sI38
I9
sI8
I38
sI9
I32
sI10
I15
sI11
I9
sI12
I27
sI13
I11
sI14
I17
sI15
I12
sI17
I13
sI18
I22
sI22
I9
sI27
I8
ssI15
(dp550
I38
I44
sI8
I21
sI9
I38
sI10
I29
sI11
I13
sI12
I30
sI13
I12
sI17
I30
sI18
I9
sI21
I9
sI29
I17
sI30
I9
ssI16
(dp551
I33
I9
sI7
I44
sI8
I29
sI9
I7
sI10
I17
sI11
I26
sI12
I33
sI17
I25
sI18
I25
sI25
I9
sI26
I12
sI29
I11
ssI17
(dp552
I32
I9
sI8
I9
sI9
I31
sI11
I23
sI12
I24
sI17
I32
sI18
I31
sI23
I12
sI24
I9
sI31
I44
ssI18
(dp553
I34
I9
sI8
I34
sI9
I44
sI10
I12
sI11
I25
sI12
I9
sI17
I34
sI18
I11
sI25
I12
ssI19
(dp554
I32
I12
sI3
I45
sI4
I20
sI6
I12
sI7
I6
sI8
I4
sI9
I24
sI11
I32
sI12
I13
sI13
I17
sI45
I12
sI17
I26
sI18
I7
sI19
I20
sI20
I3
sI24
I17
sI26
I44
ssI20
(dp555
I7
I17
sI8
I11
sI9
I17
sI11
I7
sI12
I28
sI17
I28
sI18
I21
sI21
I8
sI28
I44
ssI21
(dp556
I3
I12
sI4
I19
sI8
I22
sI9
I18
sI11
I21
sI12
I31
sI17
I24
sI18
I4
sI19
I3
sI21
I17
sI22
I12
sI24
I44
sI31
I17
ssI22
(dp557
I32
I17
sI35
I8
sI8
I32
sI9
I35
sI11
I17
sI12
I17
sI17
I44
sI18
I8
ssI23
(dp558
I36
I8
sI6
I17
sI8
I44
sI9
I36
sI11
I31
sI12
I8
sI17
I9
sI18
I6
sI31
I18
ssI24
(dp559
I37
I8
sI8
I30
sI9
I37
sI11
I14
sI12
I25
sI14
I23
sI17
I22
sI18
I28
sI22
I18
sI23
I44
sI25
I11
sI28
I12
sI30
I12
ssI25
(dp560
I34
I8
sI7
I11
sI8
I24
sI9
I34
sI11
I22
sI12
I7
sI17
I27
sI18
I29
sI22
I44
sI24
I12
sI27
I18
sI29
I12
ssI26
(dp561
I38
I12
sI8
I31
sI9
I8
sI11
I44
sI12
I11
sI17
I29
sI18
I38
sI29
I18
sI31
I12
ssI27
(dp562
I33
I12
sI34
I44
sI35
I18
sI38
I10
sI8
I12
sI9
I33
sI10
I34
sI11
I33
sI12
I38
sI17
I35
sI18
I34
ssI28
(dp563
I35
I12
sI36
I17
sI39
I11
sI8
I36
sI9
I39
sI10
I44
sI11
I35
sI12
I10
sI17
I18
sI18
I12
ssI29
(dp564
I36
I12
sI37
I11
sI8
I17
sI9
I40
sI11
I36
sI12
I14
sI14
I44
sI16
I17
sI17
I37
sI18
I16
sI40
I11
ssI30
(dp565
I6
I44
sI39
I12
sI8
I10
sI9
I11
sI10
I18
sI11
I39
sI12
I6
sI17
I21
sI18
I26
sI21
I11
sI26
I17
ssI31
(dp566
I3
I20
sI4
I5
sI37
I18
sI8
I37
sI9
I27
sI11
I12
sI12
I45
sI45
I4
sI17
I11
sI18
I27
sI20
I4
sI27
I12
sI5
I44
ssI32
(dp567
I33
I17
sI3
I41
sI4
I42
sI7
I12
sI8
I18
sI41
I4
sI42
I44
sI11
I18
sI12
I4
sI17
I7
sI18
I33
sI21
I12
sI9
I21
ssI33
(dp568
I3
I43
sI4
I46
sI5
I3
sI9
I12
sI43
I4
sI12
I5
sI46
I44
sI17
I12
sI18
I17
ssI34
(dp569
I4
I44
sI42
I3
sI3
I4
sI12
I42
ssI35
(dp570
I4
I45
sI3
I44
sI12
I3
sI45
I3
ssI36
(dp571
I12
I21
sI21
I44
ssI37
(dp572
I12
I44
sssI45
(dp573
I1
(dp574
I1
I4
sI2
I4
sI3
I44
sI4
I46
sI5
I44
sI6
I13
sI7
I11
sI8
I44
sI9
I23
sI10
I44
sI11
I44
sI12
I45
sI13
I12
sI14
I23
sI15
I10
sI16
I44
sI17
I22
sI18
I34
sI19
I20
sI20
I3
sI21
I18
sI22
I44
sI23
I44
sI24
I44
sI25
I44
sI26
I33
sI27
I44
sI28
I18
sI29
I8
sI30
I18
sI31
I18
sI32
I8
sI33
I44
sI34
I12
sI35
I8
sI36
I18
sI37
I18
sI38
I8
sI39
I30
sI40
I9
sI41
I3
sI42
I4
sI43
I3
sI44
I34
sI46
I44
ssI2
(dp575
I1
I2
sI2
I3
sI3
I5
sI4
I45
sI5
I4
sI6
I18
sI7
I12
sI8
I39
sI9
I32
sI10
I26
sI11
I21
sI12
I42
sI13
I18
sI14
I44
sI15
I44
sI16
I6
sI17
I27
sI18
I4
sI19
I3
sI20
I4
sI21
I44
sI22
I8
sI23
I8
sI24
I17
sI25
I8
sI26
I12
sI27
I12
sI28
I8
sI29
I10
sI30
I44
sI31
I44
sI32
I18
sI33
I8
sI34
I8
sI35
I9
sI36
I8
sI37
I8
sI38
I9
sI39
I44
sI40
I11
sI41
I4
sI42
I3
sI43
I4
sI44
I46
sI46
I4
ssI3
(dp576
I1
I5
sI2
I1
sI3
I45
sI4
I5
sI5
I12
sI6
I10
sI7
I17
sI8
I33
sI9
I25
sI10
I22
sI11
I22
sI12
I13
sI13
I17
sI14
I25
sI15
I11
sI16
I12
sI17
I24
sI18
I21
sI19
I4
sI20
I19
sI21
I8
sI22
I17
sI23
I9
sI24
I18
sI25
I17
sI26
I44
sI27
I8
sI28
I9
sI29
I9
sI30
I8
sI31
I8
sI32
I9
sI33
I26
sI34
I9
sI35
I11
sI36
I9
sI37
I9
sI38
I10
sI39
I8
sI40
I14
sI42
I44
sI44
I3
sssI46
(dp577
I1
(dp578
I1
I4
sI2
I3
sI3
I44
sI4
I46
sI5
I44
sI6
I10
sI7
I11
sI8
I44
sI9
I23
sI10
I44
sI11
I21
sI12
I45
sI13
I12
sI14
I23
sI15
I12
sI16
I6
sI17
I44
sI18
I34
sI19
I20
sI20
I3
sI21
I44
sI22
I8
sI23
I44
sI24
I17
sI25
I18
sI26
I44
sI27
I44
sI28
I18
sI29
I8
sI30
I8
sI31
I44
sI32
I8
sI33
I8
sI34
I12
sI35
I8
sI36
I18
sI37
I44
sI38
I44
sI39
I8
sI40
I9
sI41
I3
sI42
I3
sI43
I3
sI44
I18
sI45
I4
ssI2
(dp579
I1
I5
sI2
I4
sI3
I45
sI4
I18
sI5
I12
sI6
I18
sI7
I44
sI8
I33
sI9
I7
sI10
I34
sI11
I44
sI12
I21
sI13
I18
sI14
I44
sI15
I44
sI16
I44
sI17
I7
sI18
I7
sI19
I3
sI20
I4
sI21
I18
sI22
I9
sI23
I8
sI24
I8
sI25
I8
sI26
I18
sI27
I8
sI28
I8
sI29
I18
sI30
I44
sI31
I8
sI32
I44
sI33
I26
sI34
I18
sI35
I9
sI36
I8
sI37
I8
sI38
I8
sI39
I9
sI40
I11
sI41
I4
sI42
I4
sI43
I4
sI44
I46
sI45
I12
sss.