(dp0
I1
(dp1
I1
(dp2
I2
I14
sI3
I7
sI4
I16
sI5
I9
sI6
I5
sI7
I6
sI8
I7
sI9
I13
sI10
I14
sI11
I10
sI12
I11
sI13
I1
sI14
I15
sI15
I16
sI16
I13
ssI2
(dp3
I2
I6
sI3
I4
sI4
I1
sI5
I6
sI6
I10
sI7
I11
sI8
I12
sI9
I10
sI10
I11
sI11
I15
sI12
I16
sI13
I16
sI14
I2
sI15
I3
sI16
I4
ssI3
(dp4
I2
I3
sI3
I15
sI4
I8
sI5
I1
sI6
I2
sI7
I8
sI8
I5
sI9
I5
sI10
I6
sI11
I12
sI12
I9
sI13
I9
sI14
I13
sI15
I11
sI16
I12
ssI4
(dp5
I2
I1
sI3
I2
sI4
I3
sI5
I8
sI6
I7
sI7
I3
sI8
I4
sI9
I12
sI10
I9
sI11
I7
sI12
I8
sI13
I14
sI14
I10
sI15
I14
sI16
I15
sssI2
(dp6
I1
(dp7
I1
I5
sI3
I2
sI4
I3
sI5
I8
sI6
I10
sI7
I11
sI8
I12
sI9
I10
sI10
I11
sI11
I15
sI12
I16
sI13
I1
sI14
I15
sI15
I3
sI16
I4
ssI2
(dp8
I1
I4
sI3
I7
sI4
I16
sI5
I6
sI6
I2
sI7
I6
sI8
I7
sI9
I12
sI10
I14
sI11
I10
sI12
I8
sI13
I9
sI14
I13
sI15
I16
sI16
I12
ssI3
(dp9
I1
I13
sI3
I4
sI4
I8
sI5
I9
sI6
I7
sI7
I3
sI8
I5
sI9
I13
sI10
I6
sI11
I7
sI12
I11
sI13
I16
sI14
I2
sI15
I14
sI16
I15
ssI4
(dp10
I1
I2
sI3
I15
sI4
I1
sI5
I1
sI6
I5
sI7
I8
sI8
I4
sI9
I5
sI10
I9
sI11
I12
sI12
I9
sI13
I14
sI14
I10
sI15
I11
sI16
I13
sssI3
(dp11
I1
(dp12
I1
I5
sI2
I14
sI4
I16
sI5
I6
sI6
I10
sI7
I11
sI8
I7
sI9
I10
sI10
I11
sI11
I15
sI12
I11
sI13
I16
sI14
I10
sI15
I3
sI16
I15
ssI2
(dp13
I1
I13
sI2
I6
sI4
I8
sI5
I9
sI6
I7
sI7
I3
sI8
I5
sI9
I13
sI10
I6
sI11
I7
sI12
I9
sI13
I14
sI14
I2
sI15
I11
sI16
I12
ssI3
(dp14
I1
I2
sI2
I3
sI4
I1
sI5
I1
sI6
I2
sI7
I8
sI8
I12
sI9
I5
sI10
I14
sI11
I12
sI12
I16
sI13
I9
sI14
I15
sI15
I16
sI16
I4
ssI4
(dp15
I1
I4
sI2
I1
sI4
I3
sI5
I8
sI6
I5
sI7
I6
sI8
I4
sI9
I12
sI10
I9
sI11
I10
sI12
I8
sI13
I1
sI14
I13
sI15
I14
sI16
I13
sssI4
(dp16
I1
(dp17
I1
I13
sI2
I14
sI3
I7
sI5
I9
sI6
I10
sI7
I8
sI8
I12
sI9
I10
sI10
I11
sI11
I7
sI12
I16
sI13
I16
sI14
I10
sI15
I14
sI16
I4
ssI2
(dp18
I1
I2
sI2
I6
sI3
I4
sI5
I1
sI6
I7
sI7
I11
sI8
I5
sI9
I13
sI10
I6
sI11
I15
sI12
I11
sI13
I1
sI14
I15
sI15
I3
sI16
I12
ssI3
(dp19
I1
I5
sI2
I3
sI3
I15
sI5
I8
sI6
I5
sI7
I3
sI8
I4
sI9
I5
sI10
I14
sI11
I12
sI12
I9
sI13
I9
sI14
I13
sI15
I11
sI16
I15
ssI4
(dp20
I1
I4
sI2
I1
sI3
I2
sI5
I6
sI6
I2
sI7
I6
sI8
I7
sI9
I12
sI10
I9
sI11
I10
sI12
I8
sI13
I14
sI14
I2
sI15
I16
sI16
I13
sssI5
(dp21
I1
(dp22
I1
I13
sI2
I14
sI3
I7
sI4
I16
sI6
I5
sI7
I6
sI8
I7
sI9
I10
sI10
I6
sI11
I10
sI12
I11
sI13
I16
sI14
I10
sI15
I14
sI16
I12
ssI2
(dp23
I1
I2
sI2
I6
sI3
I15
sI4
I1
sI6
I10
sI7
I11
sI8
I12
sI9
I5
sI10
I11
sI11
I12
sI12
I9
sI13
I14
sI14
I2
sI15
I11
sI16
I15
ssI3
(dp24
I1
I4
sI2
I3
sI3
I4
sI4
I8
sI6
I2
sI7
I8
sI8
I5
sI9
I13
sI10
I14
sI11
I15
sI12
I16
sI13
I1
sI14
I15
sI15
I3
sI16
I4
ssI4
(dp25
I1
I5
sI2
I1
sI3
I2
sI4
I3
sI6
I7
sI7
I3
sI8
I4
sI9
I12
sI10
I9
sI11
I7
sI12
I8
sI13
I9
sI14
I13
sI15
I16
sI16
I13
sssI6
(dp26
I1
(dp27
I1
I13
sI2
I14
sI3
I7
sI4
I1
sI5
I9
sI7
I8
sI8
I12
sI9
I10
sI10
I6
sI11
I15
sI12
I16
sI13
I16
sI14
I10
sI15
I14
sI16
I15
ssI2
(dp28
I1
I2
sI2
I6
sI3
I15
sI4
I3
sI5
I1
sI7
I11
sI8
I4
sI9
I5
sI10
I11
sI11
I12
sI12
I9
sI13
I14
sI14
I2
sI15
I11
sI16
I4
ssI3
(dp29
I1
I5
sI2
I3
sI3
I4
sI4
I16
sI5
I6
sI7
I3
sI8
I5
sI9
I12
sI10
I14
sI11
I10
sI12
I8
sI13
I9
sI14
I15
sI15
I16
sI16
I12
ssI4
(dp30
I1
I4
sI2
I1
sI3
I2
sI4
I8
sI5
I8
sI7
I6
sI8
I7
sI9
I13
sI10
I9
sI11
I7
sI12
I11
sI13
I1
sI14
I13
sI15
I3
sI16
I13
sssI7
(dp31
I1
(dp32
I1
I5
sI2
I3
sI3
I7
sI4
I16
sI5
I6
sI6
I2
sI8
I5
sI9
I12
sI10
I14
sI11
I10
sI12
I8
sI13
I9
sI14
I15
sI15
I16
sI16
I12
ssI2
(dp33
I1
I13
sI2
I14
sI3
I4
sI4
I1
sI5
I9
sI6
I10
sI8
I12
sI9
I10
sI10
I11
sI11
I7
sI12
I16
sI13
I16
sI14
I10
sI15
I14
sI16
I15
ssI3
(dp34
I1
I2
sI2
I6
sI3
I15
sI4
I3
sI5
I1
sI6
I7
sI8
I4
sI9
I5
sI10
I6
sI11
I12
sI12
I9
sI13
I14
sI14
I2
sI15
I11
sI16
I4
ssI4
(dp35
I1
I4
sI2
I1
sI3
I2
sI4
I8
sI5
I8
sI6
I5
sI8
I7
sI9
I13
sI10
I9
sI11
I15
sI12
I11
sI13
I1
sI14
I13
sI15
I3
sI16
I13
sssI8
(dp36
I1
(dp37
I1
I5
sI2
I14
sI3
I4
sI4
I16
sI5
I6
sI6
I10
sI7
I11
sI9
I12
sI10
I14
sI11
I10
sI12
I8
sI13
I9
sI14
I15
sI15
I16
sI16
I12
ssI2
(dp38
I1
I13
sI2
I3
sI3
I7
sI4
I1
sI5
I9
sI6
I7
sI7
I8
sI9
I13
sI10
I11
sI11
I7
sI12
I16
sI13
I16
sI14
I2
sI15
I14
sI16
I15
ssI3
(dp39
I1
I2
sI2
I6
sI3
I15
sI4
I3
sI5
I8
sI6
I5
sI7
I3
sI9
I5
sI10
I9
sI11
I12
sI12
I9
sI13
I1
sI14
I13
sI15
I11
sI16
I4
ssI4
(dp40
I1
I4
sI2
I1
sI3
I2
sI4
I8
sI5
I1
sI6
I2
sI7
I6
sI9
I10
sI10
I6
sI11
I15
sI12
I11
sI13
I14
sI14
I10
sI15
I3
sI16
I13
sssI9
(dp41
I1
(dp42
I1
I5
sI2
I6
sI3
I7
sI4
I8
sI5
I9
sI6
I10
sI7
I8
sI8
I5
sI10
I11
sI11
I7
sI12
I16
sI13
I1
sI14
I15
sI15
I16
sI16
I13
ssI2
(dp43
I1
I13
sI2
I3
sI3
I15
sI4
I3
sI5
I1
sI6
I7
sI7
I11
sI8
I12
sI10
I6
sI11
I12
sI12
I9
sI13
I16
sI14
I2
sI15
I11
sI16
I15
ssI3
(dp44
I1
I2
sI2
I14
sI3
I4
sI4
I1
sI5
I6
sI6
I2
sI7
I3
sI8
I7
sI10
I14
sI11
I15
sI12
I8
sI13
I9
sI14
I13
sI15
I3
sI16
I4
ssI4
(dp45
I1
I4
sI2
I1
sI3
I2
sI4
I16
sI5
I8
sI6
I5
sI7
I6
sI8
I4
sI10
I9
sI11
I10
sI12
I11
sI13
I14
sI14
I10
sI15
I14
sI16
I12
sssI10
(dp46
I1
(dp47
I1
I5
sI2
I3
sI3
I15
sI4
I3
sI5
I6
sI6
I2
sI7
I11
sI8
I12
sI9
I10
sI11
I12
sI12
I9
sI13
I1
sI14
I15
sI15
I11
sI16
I4
ssI2
(dp48
I1
I13
sI2
I6
sI3
I7
sI4
I8
sI5
I9
sI6
I10
sI7
I8
sI8
I5
sI9
I13
sI11
I15
sI12
I16
sI13
I16
sI14
I2
sI15
I14
sI16
I15
ssI3
(dp49
I1
I2
sI2
I14
sI3
I4
sI4
I1
sI5
I1
sI6
I7
sI7
I3
sI8
I7
sI9
I5
sI11
I7
sI12
I8
sI13
I14
sI14
I10
sI15
I3
sI16
I13
ssI4
(dp50
I1
I4
sI2
I1
sI3
I2
sI4
I16
sI5
I8
sI6
I5
sI7
I6
sI8
I4
sI9
I12
sI11
I10
sI12
I11
sI13
I9
sI14
I13
sI15
I16
sI16
I12
sssI11
(dp51
I1
(dp52
I1
I5
sI2
I3
sI3
I15
sI4
I3
sI5
I6
sI6
I2
sI7
I8
sI8
I12
sI9
I13
sI10
I14
sI12
I16
sI13
I1
sI14
I15
sI15
I11
sI16
I4
ssI2
(dp53
I1
I13
sI2
I6
sI3
I7
sI4
I8
sI5
I9
sI6
I10
sI7
I11
sI8
I7
sI9
I12
sI10
I9
sI12
I8
sI13
I16
sI14
I2
sI15
I14
sI16
I15
ssI3
(dp54
I1
I2
sI2
I14
sI3
I4
sI4
I1
sI5
I1
sI6
I7
sI7
I3
sI8
I5
sI9
I5
sI10
I11
sI12
I9
sI13
I14
sI14
I10
sI15
I3
sI16
I13
ssI4
(dp55
I1
I4
sI2
I1
sI3
I2
sI4
I16
sI5
I8
sI6
I5
sI7
I6
sI8
I4
sI9
I10
sI10
I6
sI12
I11
sI13
I9
sI14
I13
sI15
I16
sI16
I12
sssI12
(dp56
I1
(dp57
I1
I5
sI2
I6
sI3
I7
sI4
I8
sI5
I6
sI6
I10
sI7
I8
sI8
I12
sI9
I5
sI10
I11
sI11
I7
sI13
I1
sI14
I15
sI15
I16
sI16
I13
ssI2
(dp58
I1
I13
sI2
I3
sI3
I15
sI4
I3
sI5
I9
sI6
I2
sI7
I11
sI8
I5
sI9
I13
sI10
I14
sI11
I12
sI13
I16
sI14
I2
sI15
I11
sI16
I15
ssI3
(dp59
I1
I2
sI2
I14
sI3
I4
sI4
I1
sI5
I1
sI6
I7
sI7
I3
sI8
I7
sI9
I12
sI10
I9
sI11
I15
sI13
I14
sI14
I10
sI15
I3
sI16
I4
ssI4
(dp60
I1
I4
sI2
I1
sI3
I2
sI4
I16
sI5
I8
sI6
I5
sI7
I6
sI8
I4
sI9
I10
sI10
I6
sI11
I10
sI13
I9
sI14
I13
sI15
I14
sI16
I12
sssI13
(dp61
I1
(dp62
I1
I5
sI2
I6
sI3
I7
sI4
I16
sI5
I9
sI6
I10
sI7
I8
sI8
I12
sI9
I10
sI10
I14
sI11
I10
sI12
I11
sI14
I15
sI15
I16
sI16
I13
ssI2
(dp63
I1
I2
sI2
I14
sI3
I4
sI4
I1
sI5
I1
sI6
I2
sI7
I11
sI8
I7
sI9
I5
sI10
I6
sI11
I15
sI12
I16
sI14
I13
sI15
I3
sI16
I4
ssI3
(dp64
I1
I4
sI2
I3
sI3
I15
sI4
I8
sI5
I6
sI6
I7
sI7
I3
sI8
I5
sI9
I13
sI10
I11
sI11
I12
sI12
I9
sI14
I2
sI15
I11
sI16
I12
ssI4
(dp65
I1
I13
sI2
I1
sI3
I2
sI4
I3
sI5
I8
sI6
I5
sI7
I6
sI8
I4
sI9
I12
sI10
I9
sI11
I7
sI12
I8
sI14
I10
sI15
I14
sI16
I15
sssI14
(dp66
I1
(dp67
I1
I5
sI2
I6
sI3
I7
sI4
I16
sI5
I9
sI6
I10
sI7
I8
sI8
I12
sI9
I10
sI10
I14
sI11
I10
sI12
I11
sI13
I1
sI15
I11
sI16
I12
ssI2
(dp68
I1
I2
sI2
I14
sI3
I4
sI4
I1
sI5
I1
sI6
I2
sI7
I11
sI8
I7
sI9
I5
sI10
I6
sI11
I15
sI12
I16
sI13
I9
sI15
I3
sI16
I4
ssI3
(dp69
I1
I4
sI2
I3
sI3
I15
sI4
I8
sI5
I6
sI6
I7
sI7
I3
sI8
I5
sI9
I13
sI10
I11
sI11
I12
sI12
I9
sI13
I16
sI15
I14
sI16
I15
ssI4
(dp70
I1
I13
sI2
I1
sI3
I2
sI4
I3
sI5
I8
sI6
I5
sI7
I6
sI8
I4
sI9
I12
sI10
I9
sI11
I7
sI12
I8
sI13
I14
sI15
I16
sI16
I13
sssI15
(dp71
I1
(dp72
I1
I4
sI2
I6
sI3
I7
sI4
I16
sI5
I1
sI6
I7
sI7
I8
sI8
I12
sI9
I5
sI10
I6
sI11
I15
sI12
I11
sI13
I1
sI14
I10
sI16
I12
ssI2
(dp73
I1
I5
sI2
I3
sI3
I15
sI4
I8
sI5
I9
sI6
I10
sI7
I3
sI8
I5
sI9
I10
sI10
I14
sI11
I7
sI12
I16
sI13
I9
sI14
I2
sI16
I4
ssI3
(dp74
I1
I2
sI2
I14
sI3
I4
sI4
I1
sI5
I6
sI6
I2
sI7
I11
sI8
I7
sI9
I13
sI10
I11
sI11
I12
sI12
I9
sI13
I14
sI14
I15
sI16
I13
ssI4
(dp75
I1
I13
sI2
I1
sI3
I2
sI4
I3
sI5
I8
sI6
I5
sI7
I6
sI8
I4
sI9
I12
sI10
I9
sI11
I10
sI12
I8
sI13
I16
sI14
I13
sI16
I15
sssI16
(dp76
I1
(dp77
I1
I5
sI2
I6
sI3
I7
sI4
I1
sI5
I9
sI6
I7
sI7
I8
sI8
I12
sI9
I13
sI10
I14
sI11
I15
sI12
I9
sI13
I14
sI14
I15
sI15
I16
ssI2
(dp78
I1
I2
sI2
I14
sI3
I15
sI4
I8
sI5
I6
sI6
I10
sI7
I11
sI8
I5
sI9
I5
sI10
I11
sI11
I12
sI12
I16
sI13
I1
sI14
I10
sI15
I11
ssI3
(dp79
I1
I4
sI2
I3
sI3
I4
sI4
I16
sI5
I1
sI6
I2
sI7
I3
sI8
I7
sI9
I10
sI10
I6
sI11
I7
sI12
I11
sI13
I9
sI14
I2
sI15
I3
ssI4
(dp80
I1
I13
sI2
I1
sI3
I2
sI4
I3
sI5
I8
sI6
I5
sI7
I6
sI8
I4
sI9
I12
sI10
I9
sI11
I10
sI12
I8
sI13
I16
sI14
I13
sI15
I14
sss.