(dp0
I1
(dp1
I1
(dp2
I2
I3
sI3
I1
sI4
I2
sI5
I6
sI6
I4
sI7
I8
sI8
I6
sI9
I7
sI10
I5
sI11
I12
sI12
I10
sI13
I14
sI14
I12
sI15
I13
sI16
I11
ssI2
(dp3
I2
I4
sI3
I7
sI4
I5
sI5
I10
sI6
I5
sI7
I9
sI8
I9
sI9
I13
sI10
I11
sI11
I16
sI12
I11
sI13
I15
sI14
I15
sI15
I16
sI16
I1
ssI3
(dp4
I2
I1
sI3
I2
sI4
I6
sI5
I4
sI6
I8
sI7
I3
sI8
I7
sI9
I8
sI10
I12
sI11
I10
sI12
I14
sI13
I9
sI14
I13
sI15
I14
sI16
I15
sssI2
(dp5
I1
(dp6
I1
I16
sI3
I7
sI4
I2
sI5
I6
sI6
I4
sI7
I8
sI8
I6
sI9
I8
sI10
I12
sI11
I12
sI12
I14
sI13
I9
sI14
I15
sI15
I13
sI16
I15
ssI2
(dp7
I1
I3
sI3
I2
sI4
I5
sI5
I10
sI6
I5
sI7
I9
sI8
I9
sI9
I13
sI10
I11
sI11
I16
sI12
I10
sI13
I15
sI14
I13
sI15
I16
sI16
I1
ssI3
(dp8
I1
I2
sI3
I1
sI4
I6
sI5
I4
sI6
I8
sI7
I3
sI8
I7
sI9
I7
sI10
I5
sI11
I10
sI12
I11
sI13
I14
sI14
I12
sI15
I14
sI16
I11
sssI3
(dp9
I1
(dp10
I1
I2
sI2
I3
sI4
I5
sI5
I10
sI6
I4
sI7
I9
sI8
I9
sI9
I13
sI10
I11
sI11
I16
sI12
I10
sI13
I15
sI14
I15
sI15
I16
sI16
I1
ssI2
(dp11
I1
I16
sI2
I4
sI4
I6
sI5
I6
sI6
I8
sI7
I3
sI8
I7
sI9
I8
sI10
I12
sI11
I12
sI12
I14
sI13
I9
sI14
I13
sI15
I14
sI16
I15
ssI3
(dp12
I1
I3
sI2
I1
sI4
I2
sI5
I4
sI6
I5
sI7
I8
sI8
I6
sI9
I7
sI10
I5
sI11
I10
sI12
I11
sI13
I14
sI14
I12
sI15
I13
sI16
I11
sssI4
(dp13
I1
(dp14
I1
I2
sI2
I4
sI3
I1
sI5
I10
sI6
I8
sI7
I3
sI8
I9
sI9
I7
sI10
I11
sI11
I16
sI12
I11
sI13
I14
sI14
I12
sI15
I13
sI16
I1
ssI2
(dp15
I1
I3
sI2
I3
sI3
I7
sI5
I6
sI6
I4
sI7
I9
sI8
I7
sI9
I13
sI10
I5
sI11
I12
sI12
I10
sI13
I15
sI14
I15
sI15
I16
sI16
I11
ssI3
(dp16
I1
I16
sI2
I1
sI3
I2
sI5
I4
sI6
I5
sI7
I8
sI8
I6
sI9
I8
sI10
I12
sI11
I10
sI12
I14
sI13
I9
sI14
I13
sI15
I14
sI16
I15
sssI5
(dp17
I1
(dp18
I1
I2
sI2
I4
sI3
I1
sI4
I5
sI6
I8
sI7
I3
sI8
I9
sI9
I7
sI10
I11
sI11
I16
sI12
I11
sI13
I14
sI14
I12
sI15
I13
sI16
I1
ssI2
(dp19
I1
I3
sI2
I3
sI3
I7
sI4
I2
sI6
I4
sI7
I9
sI8
I7
sI9
I13
sI10
I5
sI11
I12
sI12
I10
sI13
I15
sI14
I15
sI15
I16
sI16
I11
ssI3
(dp20
I1
I16
sI2
I1
sI3
I2
sI4
I6
sI6
I5
sI7
I8
sI8
I6
sI9
I8
sI10
I12
sI11
I10
sI12
I14
sI13
I9
sI14
I13
sI15
I14
sI16
I15
sssI6
(dp21
I1
(dp22
I1
I2
sI2
I4
sI3
I1
sI4
I6
sI5
I10
sI7
I3
sI8
I9
sI9
I7
sI10
I11
sI11
I16
sI12
I11
sI13
I14
sI14
I12
sI15
I13
sI16
I1
ssI2
(dp23
I1
I3
sI2
I3
sI3
I7
sI4
I5
sI5
I6
sI7
I9
sI8
I7
sI9
I13
sI10
I5
sI11
I12
sI12
I10
sI13
I15
sI14
I15
sI15
I16
sI16
I11
ssI3
(dp24
I1
I16
sI2
I1
sI3
I2
sI4
I2
sI5
I4
sI7
I8
sI8
I6
sI9
I8
sI10
I12
sI11
I10
sI12
I14
sI13
I9
sI14
I13
sI15
I14
sI16
I15
sssI7
(dp25
I1
(dp26
I1
I2
sI2
I4
sI3
I1
sI4
I6
sI5
I6
sI6
I8
sI8
I9
sI9
I7
sI10
I5
sI11
I12
sI12
I10
sI13
I14
sI14
I12
sI15
I13
sI16
I11
ssI2
(dp27
I1
I3
sI2
I3
sI3
I7
sI4
I5
sI5
I10
sI6
I4
sI8
I6
sI9
I13
sI10
I11
sI11
I16
sI12
I11
sI13
I15
sI14
I15
sI15
I16
sI16
I1
ssI3
(dp28
I1
I16
sI2
I1
sI3
I2
sI4
I2
sI5
I4
sI6
I5
sI8
I7
sI9
I8
sI10
I12
sI11
I10
sI12
I14
sI13
I9
sI14
I13
sI15
I14
sI16
I15
sssI8
(dp29
I1
(dp30
I1
I2
sI2
I4
sI3
I1
sI4
I6
sI5
I6
sI6
I8
sI7
I3
sI9
I13
sI10
I5
sI11
I12
sI12
I10
sI13
I15
sI14
I15
sI15
I16
sI16
I11
ssI2
(dp31
I1
I3
sI2
I3
sI3
I7
sI4
I5
sI5
I10
sI6
I4
sI7
I8
sI9
I7
sI10
I11
sI11
I16
sI12
I11
sI13
I14
sI14
I12
sI15
I13
sI16
I1
ssI3
(dp32
I1
I16
sI2
I1
sI3
I2
sI4
I2
sI5
I4
sI6
I5
sI7
I9
sI9
I8
sI10
I12
sI11
I10
sI12
I14
sI13
I9
sI14
I13
sI15
I14
sI16
I15
sssI9
(dp33
I1
(dp34
I1
I2
sI2
I4
sI3
I1
sI4
I6
sI5
I6
sI6
I8
sI7
I3
sI8
I9
sI10
I5
sI11
I12
sI12
I10
sI13
I15
sI14
I15
sI15
I16
sI16
I11
ssI2
(dp35
I1
I3
sI2
I3
sI3
I7
sI4
I5
sI5
I10
sI6
I4
sI7
I9
sI8
I7
sI10
I11
sI11
I16
sI12
I11
sI13
I14
sI14
I12
sI15
I13
sI16
I1
ssI3
(dp36
I1
I16
sI2
I1
sI3
I2
sI4
I2
sI5
I4
sI6
I5
sI7
I8
sI8
I6
sI10
I12
sI11
I10
sI12
I14
sI13
I9
sI14
I13
sI15
I14
sI16
I15
sssI10
(dp37
I1
(dp38
I1
I2
sI2
I4
sI3
I1
sI4
I5
sI5
I10
sI6
I5
sI7
I8
sI8
I6
sI9
I7
sI11
I16
sI12
I14
sI13
I9
sI14
I15
sI15
I13
sI16
I1
ssI2
(dp39
I1
I3
sI2
I3
sI3
I7
sI4
I2
sI5
I6
sI6
I4
sI7
I9
sI8
I9
sI9
I13
sI11
I12
sI12
I10
sI13
I15
sI14
I13
sI15
I16
sI16
I11
ssI3
(dp40
I1
I16
sI2
I1
sI3
I2
sI4
I6
sI5
I4
sI6
I8
sI7
I3
sI8
I7
sI9
I8
sI11
I10
sI12
I11
sI13
I14
sI14
I12
sI15
I14
sI16
I15
sssI11
(dp41
I1
(dp42
I1
I2
sI2
I4
sI3
I1
sI4
I5
sI5
I10
sI6
I5
sI7
I8
sI8
I6
sI9
I7
sI10
I11
sI12
I14
sI13
I9
sI14
I15
sI15
I13
sI16
I1
ssI2
(dp43
I1
I3
sI2
I3
sI3
I7
sI4
I2
sI5
I6
sI6
I4
sI7
I9
sI8
I9
sI9
I13
sI10
I5
sI12
I10
sI13
I15
sI14
I13
sI15
I16
sI16
I11
ssI3
(dp44
I1
I16
sI2
I1
sI3
I2
sI4
I6
sI5
I4
sI6
I8
sI7
I3
sI8
I7
sI9
I8
sI10
I12
sI12
I11
sI13
I14
sI14
I12
sI15
I14
sI16
I15
sssI12
(dp45
I1
(dp46
I1
I2
sI2
I4
sI3
I1
sI4
I5
sI5
I10
sI6
I5
sI7
I8
sI8
I6
sI9
I7
sI10
I12
sI11
I16
sI13
I9
sI14
I15
sI15
I13
sI16
I1
ssI2
(dp47
I1
I3
sI2
I3
sI3
I7
sI4
I2
sI5
I6
sI6
I4
sI7
I9
sI8
I9
sI9
I13
sI10
I11
sI11
I12
sI13
I15
sI14
I13
sI15
I16
sI16
I11
ssI3
(dp48
I1
I16
sI2
I1
sI3
I2
sI4
I6
sI5
I4
sI6
I8
sI7
I3
sI8
I7
sI9
I8
sI10
I5
sI11
I10
sI13
I14
sI14
I12
sI15
I14
sI16
I15
sssI13
(dp49
I1
(dp50
I1
I2
sI2
I4
sI3
I1
sI4
I5
sI5
I10
sI6
I5
sI7
I8
sI8
I6
sI9
I7
sI10
I12
sI11
I12
sI12
I14
sI14
I15
sI15
I13
sI16
I11
ssI2
(dp51
I1
I3
sI2
I3
sI3
I7
sI4
I2
sI5
I6
sI6
I4
sI7
I9
sI8
I9
sI9
I13
sI10
I11
sI11
I16
sI12
I10
sI14
I12
sI15
I16
sI16
I1
ssI3
(dp52
I1
I16
sI2
I1
sI3
I2
sI4
I6
sI5
I4
sI6
I8
sI7
I3
sI8
I7
sI9
I8
sI10
I5
sI11
I10
sI12
I11
sI14
I13
sI15
I14
sI16
I15
sssI14
(dp53
I1
(dp54
I1
I2
sI2
I4
sI3
I1
sI4
I5
sI5
I10
sI6
I5
sI7
I8
sI8
I6
sI9
I7
sI10
I12
sI11
I12
sI12
I14
sI13
I9
sI15
I16
sI16
I11
ssI2
(dp55
I1
I3
sI2
I3
sI3
I7
sI4
I2
sI5
I6
sI6
I4
sI7
I9
sI8
I9
sI9
I13
sI10
I11
sI11
I16
sI12
I10
sI13
I14
sI15
I13
sI16
I1
ssI3
(dp56
I1
I16
sI2
I1
sI3
I2
sI4
I6
sI5
I4
sI6
I8
sI7
I3
sI8
I7
sI9
I8
sI10
I5
sI11
I10
sI12
I11
sI13
I15
sI15
I14
sI16
I15
sssI15
(dp57
I1
(dp58
I1
I2
sI2
I4
sI3
I1
sI4
I5
sI5
I10
sI6
I5
sI7
I8
sI8
I6
sI9
I7
sI10
I12
sI11
I12
sI12
I14
sI13
I9
sI14
I15
sI16
I11
ssI2
(dp59
I1
I3
sI2
I3
sI3
I7
sI4
I2
sI5
I6
sI6
I4
sI7
I9
sI8
I9
sI9
I13
sI10
I11
sI11
I16
sI12
I10
sI13
I15
sI14
I13
sI16
I1
ssI3
(dp60
I1
I16
sI2
I1
sI3
I2
sI4
I6
sI5
I4
sI6
I8
sI7
I3
sI8
I7
sI9
I8
sI10
I5
sI11
I10
sI12
I11
sI13
I14
sI14
I12
sI16
I15
sssI16
(dp61
I1
(dp62
I1
I2
sI2
I4
sI3
I1
sI4
I5
sI5
I10
sI6
I5
sI7
I8
sI8
I6
sI9
I7
sI10
I11
sI11
I16
sI12
I11
sI13
I14
sI14
I12
sI15
I13
ssI2
(dp63
I1
I3
sI2
I3
sI3
I7
sI4
I2
sI5
I6
sI6
I4
sI7
I9
sI8
I9
sI9
I13
sI10
I5
sI11
I12
sI12
I10
sI13
I15
sI14
I15
sI15
I16
ssI3
(dp64
I1
I16
sI2
I1
sI3
I2
sI4
I6
sI5
I4
sI6
I8
sI7
I3
sI8
I7
sI9
I8
sI10
I12
sI11
I10
sI12
I14
sI13
I9
sI14
I13
sI15
I14
sss.