(dp0
I1
(dp1
I1
(dp2
I2
I3
sI3
I1
sI4
I2
sI5
I6
sI6
I4
sI7
I8
sI8
I6
sI9
I7
sI10
I5
sI11
I12
sI12
I10
sI13
I11
sI14
I15
sI15
I13
sI16
I12
sI17
I18
sI18
I16
sI19
I20
sI20
I22
sI21
I19
sI22
I23
sI23
I18
sI24
I22
sI25
I21
sI26
I27
sI27
I25
sI28
I14
ssI2
(dp3
I2
I4
sI3
I7
sI4
I5
sI5
I10
sI6
I5
sI7
I9
sI8
I9
sI9
I19
sI10
I11
sI11
I13
sI12
I11
sI13
I14
sI14
I28
sI15
I14
sI16
I17
sI17
I15
sI18
I17
sI19
I21
sI20
I21
sI21
I25
sI22
I24
sI23
I24
sI24
I26
sI25
I27
sI26
I25
sI27
I28
sI28
I1
ssI3
(dp4
I2
I1
sI3
I2
sI4
I6
sI5
I4
sI6
I8
sI7
I3
sI8
I7
sI9
I8
sI10
I12
sI11
I10
sI12
I16
sI13
I15
sI14
I13
sI15
I17
sI16
I18
sI17
I16
sI18
I23
sI19
I9
sI20
I19
sI21
I20
sI22
I20
sI23
I22
sI24
I23
sI25
I26
sI26
I24
sI27
I26
sI28
I27
sssI2
(dp5
I1
(dp6
I1
I28
sI3
I7
sI4
I2
sI5
I6
sI6
I4
sI7
I8
sI8
I6
sI9
I8
sI10
I12
sI11
I12
sI12
I16
sI13
I15
sI14
I15
sI15
I17
sI16
I18
sI17
I18
sI18
I23
sI19
I9
sI20
I21
sI21
I19
sI22
I24
sI23
I24
sI24
I26
sI25
I21
sI26
I27
sI27
I25
sI28
I27
ssI2
(dp7
I1
I3
sI3
I2
sI4
I5
sI5
I10
sI6
I5
sI7
I9
sI8
I9
sI9
I19
sI10
I11
sI11
I13
sI12
I10
sI13
I14
sI14
I28
sI15
I13
sI16
I12
sI17
I16
sI18
I16
sI19
I21
sI20
I19
sI21
I25
sI22
I20
sI23
I22
sI24
I22
sI25
I27
sI26
I25
sI27
I28
sI28
I1
ssI3
(dp8
I1
I2
sI3
I1
sI4
I6
sI5
I4
sI6
I8
sI7
I3
sI8
I7
sI9
I7
sI10
I5
sI11
I10
sI12
I11
sI13
I11
sI14
I13
sI15
I14
sI16
I17
sI17
I15
sI18
I17
sI19
I20
sI20
I22
sI21
I20
sI22
I23
sI23
I18
sI24
I23
sI25
I26
sI26
I24
sI27
I26
sI28
I14
sssI3
(dp9
I1
(dp10
I1
I2
sI2
I3
sI4
I5
sI5
I10
sI6
I4
sI7
I9
sI8
I9
sI9
I19
sI10
I11
sI11
I13
sI12
I10
sI13
I14
sI14
I28
sI15
I13
sI16
I12
sI17
I18
sI18
I16
sI19
I21
sI20
I21
sI21
I25
sI22
I24
sI23
I24
sI24
I26
sI25
I27
sI26
I27
sI27
I28
sI28
I1
ssI2
(dp11
I1
I28
sI2
I4
sI4
I6
sI5
I6
sI6
I8
sI7
I3
sI8
I7
sI9
I8
sI10
I12
sI11
I12
sI12
I16
sI13
I15
sI14
I15
sI15
I17
sI16
I18
sI17
I16
sI18
I23
sI19
I9
sI20
I19
sI21
I20
sI22
I20
sI23
I22
sI24
I23
sI25
I26
sI26
I24
sI27
I26
sI28
I27
ssI3
(dp12
I1
I3
sI2
I1
sI4
I2
sI5
I4
sI6
I5
sI7
I8
sI8
I6
sI9
I7
sI10
I5
sI11
I10
sI12
I11
sI13
I11
sI14
I13
sI15
I14
sI16
I17
sI17
I15
sI18
I17
sI19
I20
sI20
I22
sI21
I19
sI22
I23
sI23
I18
sI24
I22
sI25
I21
sI26
I25
sI27
I25
sI28
I14
sssI4
(dp13
I1
(dp14
I1
I2
sI2
I4
sI3
I1
sI5
I10
sI6
I8
sI7
I3
sI8
I9
sI9
I7
sI10
I11
sI11
I13
sI12
I11
sI13
I14
sI14
I28
sI15
I14
sI16
I12
sI17
I18
sI18
I16
sI19
I20
sI20
I22
sI21
I19
sI22
I23
sI23
I18
sI24
I22
sI25
I21
sI26
I27
sI27
I25
sI28
I1
ssI2
(dp15
I1
I3
sI2
I3
sI3
I7
sI5
I6
sI6
I4
sI7
I9
sI8
I7
sI9
I19
sI10
I5
sI11
I12
sI12
I10
sI13
I11
sI14
I15
sI15
I13
sI16
I17
sI17
I15
sI18
I17
sI19
I21
sI20
I21
sI21
I25
sI22
I24
sI23
I24
sI24
I26
sI25
I27
sI26
I25
sI27
I28
sI28
I14
ssI3
(dp16
I1
I28
sI2
I1
sI3
I2
sI5
I4
sI6
I5
sI7
I8
sI8
I6
sI9
I8
sI10
I12
sI11
I10
sI12
I16
sI13
I15
sI14
I13
sI15
I17
sI16
I18
sI17
I16
sI18
I23
sI19
I9
sI20
I19
sI21
I20
sI22
I20
sI23
I22
sI24
I23
sI25
I26
sI26
I24
sI27
I26
sI28
I27
sssI5
(dp17
I1
(dp18
I1
I2
sI2
I4
sI3
I1
sI4
I5
sI6
I8
sI7
I3
sI8
I9
sI9
I7
sI10
I11
sI11
I13
sI12
I11
sI13
I14
sI14
I28
sI15
I14
sI16
I12
sI17
I18
sI18
I16
sI19
I20
sI20
I22
sI21
I19
sI22
I23
sI23
I18
sI24
I22
sI25
I21
sI26
I27
sI27
I25
sI28
I1
ssI2
(dp19
I1
I3
sI2
I3
sI3
I7
sI4
I2
sI6
I4
sI7
I9
sI8
I7
sI9
I19
sI10
I5
sI11
I12
sI12
I10
sI13
I11
sI14
I15
sI15
I13
sI16
I17
sI17
I15
sI18
I17
sI19
I21
sI20
I21
sI21
I25
sI22
I24
sI23
I24
sI24
I26
sI25
I27
sI26
I25
sI27
I28
sI28
I14
ssI3
(dp20
I1
I28
sI2
I1
sI3
I2
sI4
I6
sI6
I5
sI7
I8
sI8
I6
sI9
I8
sI10
I12
sI11
I10
sI12
I16
sI13
I15
sI14
I13
sI15
I17
sI16
I18
sI17
I16
sI18
I23
sI19
I9
sI20
I19
sI21
I20
sI22
I20
sI23
I22
sI24
I23
sI25
I26
sI26
I24
sI27
I26
sI28
I27
sssI6
(dp21
I1
(dp22
I1
I2
sI2
I4
sI3
I1
sI4
I6
sI5
I10
sI7
I3
sI8
I9
sI9
I7
sI10
I11
sI11
I13
sI12
I11
sI13
I14
sI14
I28
sI15
I14
sI16
I12
sI17
I18
sI18
I16
sI19
I20
sI20
I22
sI21
I19
sI22
I23
sI23
I18
sI24
I22
sI25
I21
sI26
I27
sI27
I25
sI28
I1
ssI2
(dp23
I1
I3
sI2
I3
sI3
I7
sI4
I5
sI5
I6
sI7
I9
sI8
I7
sI9
I19
sI10
I5
sI11
I12
sI12
I10
sI13
I11
sI14
I15
sI15
I13
sI16
I17
sI17
I15
sI18
I17
sI19
I21
sI20
I21
sI21
I25
sI22
I24
sI23
I24
sI24
I26
sI25
I27
sI26
I25
sI27
I28
sI28
I14
ssI3
(dp24
I1
I28
sI2
I1
sI3
I2
sI4
I2
sI5
I4
sI7
I8
sI8
I6
sI9
I8
sI10
I12
sI11
I10
sI12
I16
sI13
I15
sI14
I13
sI15
I17
sI16
I18
sI17
I16
sI18
I23
sI19
I9
sI20
I19
sI21
I20
sI22
I20
sI23
I22
sI24
I23
sI25
I26
sI26
I24
sI27
I26
sI28
I27
sssI7
(dp25
I1
(dp26
I1
I2
sI2
I4
sI3
I1
sI4
I6
sI5
I6
sI6
I8
sI8
I9
sI9
I7
sI10
I5
sI11
I12
sI12
I10
sI13
I11
sI14
I15
sI15
I13
sI16
I12
sI17
I18
sI18
I16
sI19
I20
sI20
I22
sI21
I19
sI22
I23
sI23
I18
sI24
I22
sI25
I21
sI26
I27
sI27
I25
sI28
I14
ssI2
(dp27
I1
I3
sI2
I3
sI3
I7
sI4
I5
sI5
I10
sI6
I4
sI8
I6
sI9
I19
sI10
I11
sI11
I13
sI12
I11
sI13
I14
sI14
I28
sI15
I14
sI16
I17
sI17
I15
sI18
I17
sI19
I21
sI20
I21
sI21
I25
sI22
I24
sI23
I24
sI24
I26
sI25
I27
sI26
I25
sI27
I28
sI28
I1
ssI3
(dp28
I1
I28
sI2
I1
sI3
I2
sI4
I2
sI5
I4
sI6
I5
sI8
I7
sI9
I8
sI10
I12
sI11
I10
sI12
I16
sI13
I15
sI14
I13
sI15
I17
sI16
I18
sI17
I16
sI18
I23
sI19
I9
sI20
I19
sI21
I20
sI22
I20
sI23
I22
sI24
I23
sI25
I26
sI26
I24
sI27
I26
sI28
I27
sssI8
(dp29
I1
(dp30
I1
I2
sI2
I4
sI3
I1
sI4
I6
sI5
I6
sI6
I8
sI7
I3
sI9
I19
sI10
I5
sI11
I12
sI12
I10
sI13
I11
sI14
I15
sI15
I13
sI16
I12
sI17
I18
sI18
I16
sI19
I21
sI20
I21
sI21
I25
sI22
I24
sI23
I24
sI24
I26
sI25
I27
sI26
I27
sI27
I28
sI28
I14
ssI2
(dp31
I1
I3
sI2
I3
sI3
I7
sI4
I5
sI5
I10
sI6
I4
sI7
I8
sI9
I7
sI10
I11
sI11
I13
sI12
I11
sI13
I14
sI14
I28
sI15
I14
sI16
I17
sI17
I15
sI18
I17
sI19
I20
sI20
I22
sI21
I19
sI22
I23
sI23
I18
sI24
I22
sI25
I21
sI26
I25
sI27
I25
sI28
I1
ssI3
(dp32
I1
I28
sI2
I1
sI3
I2
sI4
I2
sI5
I4
sI6
I5
sI7
I9
sI9
I8
sI10
I12
sI11
I10
sI12
I16
sI13
I15
sI14
I13
sI15
I17
sI16
I18
sI17
I16
sI18
I23
sI19
I9
sI20
I19
sI21
I20
sI22
I20
sI23
I22
sI24
I23
sI25
I26
sI26
I24
sI27
I26
sI28
I27
sssI9
(dp33
I1
(dp34
I1
I2
sI2
I4
sI3
I1
sI4
I6
sI5
I6
sI6
I8
sI7
I3
sI8
I9
sI10
I5
sI11
I12
sI12
I10
sI13
I11
sI14
I15
sI15
I13
sI16
I12
sI17
I18
sI18
I16
sI19
I21
sI20
I21
sI21
I25
sI22
I24
sI23
I24
sI24
I26
sI25
I27
sI26
I27
sI27
I28
sI28
I14
ssI2
(dp35
I1
I3
sI2
I3
sI3
I7
sI4
I5
sI5
I10
sI6
I4
sI7
I9
sI8
I7
sI10
I11
sI11
I13
sI12
I11
sI13
I14
sI14
I28
sI15
I14
sI16
I17
sI17
I15
sI18
I17
sI19
I20
sI20
I22
sI21
I19
sI22
I23
sI23
I18
sI24
I22
sI25
I21
sI26
I25
sI27
I25
sI28
I1
ssI3
(dp36
I1
I28
sI2
I1
sI3
I2
sI4
I2
sI5
I4
sI6
I5
sI7
I8
sI8
I6
sI10
I12
sI11
I10
sI12
I16
sI13
I15
sI14
I13
sI15
I17
sI16
I18
sI17
I16
sI18
I23
sI19
I9
sI20
I19
sI21
I20
sI22
I20
sI23
I22
sI24
I23
sI25
I26
sI26
I24
sI27
I26
sI28
I27
sssI10
(dp37
I1
(dp38
I1
I2
sI2
I4
sI3
I1
sI4
I5
sI5
I10
sI6
I5
sI7
I8
sI8
I6
sI9
I7
sI11
I13
sI12
I16
sI13
I14
sI14
I28
sI15
I14
sI16
I18
sI17
I18
sI18
I23
sI19
I9
sI20
I21
sI21
I19
sI22
I20
sI23
I24
sI24
I22
sI25
I21
sI26
I27
sI27
I25
sI28
I1
ssI2
(dp39
I1
I3
sI2
I3
sI3
I7
sI4
I2
sI5
I6
sI6
I4
sI7
I9
sI8
I9
sI9
I19
sI11
I12
sI12
I10
sI13
I11
sI14
I15
sI15
I13
sI16
I17
sI17
I15
sI18
I16
sI19
I21
sI20
I19
sI21
I25
sI22
I24
sI23
I22
sI24
I26
sI25
I27
sI26
I25
sI27
I28
sI28
I14
ssI3
(dp40
I1
I28
sI2
I1
sI3
I2
sI4
I6
sI5
I4
sI6
I8
sI7
I3
sI8
I7
sI9
I8
sI11
I10
sI12
I11
sI13
I15
sI14
I13
sI15
I17
sI16
I12
sI17
I16
sI18
I17
sI19
I20
sI20
I22
sI21
I20
sI22
I23
sI23
I18
sI24
I23
sI25
I26
sI26
I24
sI27
I26
sI28
I27
sssI11
(dp41
I1
(dp42
I1
I2
sI2
I4
sI3
I1
sI4
I5
sI5
I10
sI6
I5
sI7
I8
sI8
I6
sI9
I7
sI10
I11
sI12
I16
sI13
I14
sI14
I28
sI15
I14
sI16
I18
sI17
I18
sI18
I23
sI19
I9
sI20
I21
sI21
I19
sI22
I20
sI23
I24
sI24
I22
sI25
I21
sI26
I27
sI27
I25
sI28
I1
ssI2
(dp43
I1
I3
sI2
I3
sI3
I7
sI4
I2
sI5
I6
sI6
I4
sI7
I9
sI8
I9
sI9
I19
sI10
I5
sI12
I10
sI13
I11
sI14
I15
sI15
I13
sI16
I17
sI17
I15
sI18
I16
sI19
I21
sI20
I19
sI21
I25
sI22
I24
sI23
I22
sI24
I26
sI25
I27
sI26
I25
sI27
I28
sI28
I14
ssI3
(dp44
I1
I28
sI2
I1
sI3
I2
sI4
I6
sI5
I4
sI6
I8
sI7
I3
sI8
I7
sI9
I8
sI10
I12
sI12
I11
sI13
I15
sI14
I13
sI15
I17
sI16
I12
sI17
I16
sI18
I17
sI19
I20
sI20
I22
sI21
I20
sI22
I23
sI23
I18
sI24
I23
sI25
I26
sI26
I24
sI27
I26
sI28
I27
sssI12
(dp45
I1
(dp46
I1
I2
sI2
I4
sI3
I1
sI4
I5
sI5
I10
sI6
I5
sI7
I8
sI8
I6
sI9
I7
sI10
I12
sI11
I13
sI13
I14
sI14
I28
sI15
I14
sI16
I18
sI17
I18
sI18
I23
sI19
I9
sI20
I21
sI21
I19
sI22
I20
sI23
I24
sI24
I22
sI25
I21
sI26
I27
sI27
I25
sI28
I1
ssI2
(dp47
I1
I3
sI2
I3
sI3
I7
sI4
I2
sI5
I6
sI6
I4
sI7
I9
sI8
I9
sI9
I19
sI10
I11
sI11
I12
sI13
I11
sI14
I15
sI15
I13
sI16
I17
sI17
I15
sI18
I16
sI19
I21
sI20
I19
sI21
I25
sI22
I24
sI23
I22
sI24
I26
sI25
I27
sI26
I25
sI27
I28
sI28
I14
ssI3
(dp48
I1
I28
sI2
I1
sI3
I2
sI4
I6
sI5
I4
sI6
I8
sI7
I3
sI8
I7
sI9
I8
sI10
I5
sI11
I10
sI13
I15
sI14
I13
sI15
I17
sI16
I12
sI17
I16
sI18
I17
sI19
I20
sI20
I22
sI21
I20
sI22
I23
sI23
I18
sI24
I23
sI25
I26
sI26
I24
sI27
I26
sI28
I27
sssI13
(dp49
I1
(dp50
I1
I2
sI2
I4
sI3
I1
sI4
I5
sI5
I10
sI6
I5
sI7
I8
sI8
I6
sI9
I7
sI10
I11
sI11
I13
sI12
I11
sI14
I28
sI15
I17
sI16
I12
sI17
I18
sI18
I16
sI19
I9
sI20
I21
sI21
I19
sI22
I24
sI23
I24
sI24
I26
sI25
I21
sI26
I27
sI27
I25
sI28
I1
ssI2
(dp51
I1
I3
sI2
I3
sI3
I7
sI4
I2
sI5
I6
sI6
I4
sI7
I9
sI8
I9
sI9
I19
sI10
I5
sI11
I12
sI12
I10
sI14
I15
sI15
I13
sI16
I18
sI17
I16
sI18
I23
sI19
I21
sI20
I19
sI21
I25
sI22
I20
sI23
I22
sI24
I22
sI25
I27
sI26
I25
sI27
I28
sI28
I14
ssI3
(dp52
I1
I28
sI2
I1
sI3
I2
sI4
I6
sI5
I4
sI6
I8
sI7
I3
sI8
I7
sI9
I8
sI10
I12
sI11
I10
sI12
I16
sI14
I13
sI15
I14
sI16
I17
sI17
I15
sI18
I17
sI19
I20
sI20
I22
sI21
I20
sI22
I23
sI23
I18
sI24
I23
sI25
I26
sI26
I24
sI27
I26
sI28
I27
sssI14
(dp53
I1
(dp54
I1
I2
sI2
I4
sI3
I1
sI4
I5
sI5
I10
sI6
I5
sI7
I8
sI8
I6
sI9
I7
sI10
I11
sI11
I13
sI12
I11
sI13
I14
sI15
I17
sI16
I12
sI17
I18
sI18
I16
sI19
I9
sI20
I21
sI21
I19
sI22
I24
sI23
I24
sI24
I26
sI25
I21
sI26
I27
sI27
I25
sI28
I1
ssI2
(dp55
I1
I3
sI2
I3
sI3
I7
sI4
I2
sI5
I6
sI6
I4
sI7
I9
sI8
I9
sI9
I19
sI10
I5
sI11
I12
sI12
I10
sI13
I11
sI15
I13
sI16
I18
sI17
I16
sI18
I23
sI19
I21
sI20
I19
sI21
I25
sI22
I20
sI23
I22
sI24
I22
sI25
I27
sI26
I25
sI27
I28
sI28
I14
ssI3
(dp56
I1
I28
sI2
I1
sI3
I2
sI4
I6
sI5
I4
sI6
I8
sI7
I3
sI8
I7
sI9
I8
sI10
I12
sI11
I10
sI12
I16
sI13
I15
sI15
I14
sI16
I17
sI17
I15
sI18
I17
sI19
I20
sI20
I22
sI21
I20
sI22
I23
sI23
I18
sI24
I23
sI25
I26
sI26
I24
sI27
I26
sI28
I27
sssI15
(dp57
I1
(dp58
I1
I2
sI2
I4
sI3
I1
sI4
I5
sI5
I10
sI6
I5
sI7
I8
sI8
I6
sI9
I7
sI10
I11
sI11
I13
sI12
I11
sI13
I15
sI14
I28
sI16
I18
sI17
I18
sI18
I23
sI19
I9
sI20
I21
sI21
I19
sI22
I20
sI23
I24
sI24
I22
sI25
I21
sI26
I27
sI27
I25
sI28
I1
ssI2
(dp59
I1
I3
sI2
I3
sI3
I7
sI4
I2
sI5
I6
sI6
I4
sI7
I9
sI8
I9
sI9
I19
sI10
I5
sI11
I12
sI12
I10
sI13
I14
sI14
I15
sI16
I12
sI17
I16
sI18
I16
sI19
I21
sI20
I19
sI21
I25
sI22
I24
sI23
I22
sI24
I26
sI25
I27
sI26
I25
sI27
I28
sI28
I14
ssI3
(dp60
I1
I28
sI2
I1
sI3
I2
sI4
I6
sI5
I4
sI6
I8
sI7
I3
sI8
I7
sI9
I8
sI10
I12
sI11
I10
sI12
I16
sI13
I11
sI14
I13
sI16
I17
sI17
I15
sI18
I17
sI19
I20
sI20
I22
sI21
I20
sI22
I23
sI23
I18
sI24
I23
sI25
I26
sI26
I24
sI27
I26
sI28
I27
sssI16
(dp61
I1
(dp62
I1
I2
sI2
I4
sI3
I1
sI4
I5
sI5
I10
sI6
I5
sI7
I8
sI8
I6
sI9
I7
sI10
I12
sI11
I12
sI12
I16
sI13
I14
sI14
I28
sI15
I13
sI17
I15
sI18
I23
sI19
I9
sI20
I21
sI21
I19
sI22
I20
sI23
I24
sI24
I22
sI25
I21
sI26
I27
sI27
I25
sI28
I1
ssI2
(dp63
I1
I3
sI2
I3
sI3
I7
sI4
I2
sI5
I6
sI6
I4
sI7
I9
sI8
I9
sI9
I19
sI10
I11
sI11
I13
sI12
I10
sI13
I15
sI14
I15
sI15
I17
sI17
I18
sI18
I16
sI19
I21
sI20
I19
sI21
I25
sI22
I24
sI23
I22
sI24
I26
sI25
I27
sI26
I25
sI27
I28
sI28
I14
ssI3
(dp64
I1
I28
sI2
I1
sI3
I2
sI4
I6
sI5
I4
sI6
I8
sI7
I3
sI8
I7
sI9
I8
sI10
I5
sI11
I10
sI12
I11
sI13
I11
sI14
I13
sI15
I14
sI17
I16
sI18
I17
sI19
I20
sI20
I22
sI21
I20
sI22
I23
sI23
I18
sI24
I23
sI25
I26
sI26
I24
sI27
I26
sI28
I27
sssI17
(dp65
I1
(dp66
I1
I2
sI2
I4
sI3
I1
sI4
I5
sI5
I10
sI6
I5
sI7
I8
sI8
I6
sI9
I7
sI10
I12
sI11
I12
sI12
I16
sI13
I14
sI14
I28
sI15
I13
sI16
I17
sI18
I16
sI19
I9
sI20
I21
sI21
I19
sI22
I24
sI23
I24
sI24
I26
sI25
I21
sI26
I27
sI27
I25
sI28
I1
ssI2
(dp67
I1
I3
sI2
I3
sI3
I7
sI4
I2
sI5
I6
sI6
I4
sI7
I9
sI8
I9
sI9
I19
sI10
I11
sI11
I13
sI12
I10
sI13
I15
sI14
I15
sI15
I17
sI16
I18
sI18
I23
sI19
I21
sI20
I19
sI21
I25
sI22
I20
sI23
I22
sI24
I22
sI25
I27
sI26
I25
sI27
I28
sI28
I14
ssI3
(dp68
I1
I28
sI2
I1
sI3
I2
sI4
I6
sI5
I4
sI6
I8
sI7
I3
sI8
I7
sI9
I8
sI10
I5
sI11
I10
sI12
I11
sI13
I11
sI14
I13
sI15
I14
sI16
I12
sI18
I17
sI19
I20
sI20
I22
sI21
I20
sI22
I23
sI23
I18
sI24
I23
sI25
I26
sI26
I24
sI27
I26
sI28
I27
sssI18
(dp69
I1
(dp70
I1
I2
sI2
I4
sI3
I1
sI4
I5
sI5
I10
sI6
I5
sI7
I8
sI8
I6
sI9
I7
sI10
I12
sI11
I12
sI12
I16
sI13
I14
sI14
I28
sI15
I13
sI16
I18
sI17
I16
sI19
I9
sI20
I21
sI21
I19
sI22
I20
sI23
I24
sI24
I22
sI25
I21
sI26
I27
sI27
I25
sI28
I1
ssI2
(dp71
I1
I3
sI2
I3
sI3
I7
sI4
I2
sI5
I6
sI6
I4
sI7
I9
sI8
I9
sI9
I19
sI10
I11
sI11
I13
sI12
I10
sI13
I15
sI14
I15
sI15
I17
sI16
I12
sI17
I18
sI19
I21
sI20
I19
sI21
I25
sI22
I24
sI23
I22
sI24
I26
sI25
I27
sI26
I25
sI27
I28
sI28
I14
ssI3
(dp72
I1
I28
sI2
I1
sI3
I2
sI4
I6
sI5
I4
sI6
I8
sI7
I3
sI8
I7
sI9
I8
sI10
I5
sI11
I10
sI12
I11
sI13
I11
sI14
I13
sI15
I14
sI16
I17
sI17
I15
sI19
I20
sI20
I22
sI21
I20
sI22
I23
sI23
I18
sI24
I23
sI25
I26
sI26
I24
sI27
I26
sI28
I27
sssI19
(dp73
I1
(dp74
I1
I2
sI2
I4
sI3
I1
sI4
I5
sI5
I10
sI6
I5
sI7
I8
sI8
I6
sI9
I7
sI10
I12
sI11
I12
sI12
I16
sI13
I11
sI14
I15
sI15
I13
sI16
I18
sI17
I18
sI18
I23
sI20
I21
sI21
I19
sI22
I20
sI23
I24
sI24
I22
sI25
I26
sI26
I24
sI27
I25
sI28
I14
ssI2
(dp75
I1
I3
sI2
I3
sI3
I7
sI4
I2
sI5
I6
sI6
I4
sI7
I9
sI8
I9
sI9
I19
sI10
I11
sI11
I13
sI12
I10
sI13
I14
sI14
I28
sI15
I14
sI16
I17
sI17
I15
sI18
I16
sI20
I22
sI21
I25
sI22
I23
sI23
I18
sI24
I23
sI25
I27
sI26
I27
sI27
I28
sI28
I1
ssI3
(dp76
I1
I28
sI2
I1
sI3
I2
sI4
I6
sI5
I4
sI6
I8
sI7
I3
sI8
I7
sI9
I8
sI10
I5
sI11
I10
sI12
I11
sI13
I15
sI14
I13
sI15
I17
sI16
I12
sI17
I16
sI18
I17
sI20
I19
sI21
I20
sI22
I24
sI23
I22
sI24
I26
sI25
I21
sI26
I25
sI27
I26
sI28
I27
sssI20
(dp77
I1
(dp78
I1
I2
sI2
I4
sI3
I1
sI4
I5
sI5
I10
sI6
I5
sI7
I8
sI8
I6
sI9
I7
sI10
I12
sI11
I12
sI12
I16
sI13
I11
sI14
I15
sI15
I13
sI16
I18
sI17
I18
sI18
I23
sI19
I9
sI21
I25
sI22
I20
sI23
I24
sI24
I22
sI25
I27
sI26
I27
sI27
I28
sI28
I14
ssI2
(dp79
I1
I3
sI2
I3
sI3
I7
sI4
I2
sI5
I6
sI6
I4
sI7
I9
sI8
I9
sI9
I19
sI10
I11
sI11
I13
sI12
I10
sI13
I14
sI14
I28
sI15
I14
sI16
I17
sI17
I15
sI18
I16
sI19
I20
sI21
I19
sI22
I23
sI23
I18
sI24
I23
sI25
I26
sI26
I24
sI27
I25
sI28
I1
ssI3
(dp80
I1
I28
sI2
I1
sI3
I2
sI4
I6
sI5
I4
sI6
I8
sI7
I3
sI8
I7
sI9
I8
sI10
I5
sI11
I10
sI12
I11
sI13
I15
sI14
I13
sI15
I17
sI16
I12
sI17
I16
sI18
I17
sI19
I21
sI21
I20
sI22
I24
sI23
I22
sI24
I26
sI25
I21
sI26
I25
sI27
I26
sI28
I27
sssI21
(dp81
I1
(dp82
I1
I2
sI2
I4
sI3
I1
sI4
I5
sI5
I10
sI6
I5
sI7
I8
sI8
I6
sI9
I7
sI10
I12
sI11
I12
sI12
I16
sI13
I11
sI14
I15
sI15
I13
sI16
I18
sI17
I18
sI18
I23
sI19
I9
sI20
I21
sI22
I20
sI23
I24
sI24
I22
sI25
I27
sI26
I27
sI27
I28
sI28
I14
ssI2
(dp83
I1
I3
sI2
I3
sI3
I7
sI4
I2
sI5
I6
sI6
I4
sI7
I9
sI8
I9
sI9
I19
sI10
I11
sI11
I13
sI12
I10
sI13
I14
sI14
I28
sI15
I14
sI16
I17
sI17
I15
sI18
I16
sI19
I21
sI20
I19
sI22
I23
sI23
I18
sI24
I23
sI25
I26
sI26
I24
sI27
I25
sI28
I1
ssI3
(dp84
I1
I28
sI2
I1
sI3
I2
sI4
I6
sI5
I4
sI6
I8
sI7
I3
sI8
I7
sI9
I8
sI10
I5
sI11
I10
sI12
I11
sI13
I15
sI14
I13
sI15
I17
sI16
I12
sI17
I16
sI18
I17
sI19
I20
sI20
I22
sI22
I24
sI23
I22
sI24
I26
sI25
I21
sI26
I25
sI27
I26
sI28
I27
sssI22
(dp85
I1
(dp86
I1
I2
sI2
I4
sI3
I1
sI4
I5
sI5
I10
sI6
I5
sI7
I8
sI8
I6
sI9
I7
sI10
I12
sI11
I12
sI12
I16
sI13
I11
sI14
I15
sI15
I13
sI16
I18
sI17
I18
sI18
I23
sI19
I9
sI20
I21
sI21
I19
sI23
I24
sI24
I22
sI25
I27
sI26
I27
sI27
I28
sI28
I14
ssI2
(dp87
I1
I3
sI2
I3
sI3
I7
sI4
I2
sI5
I6
sI6
I4
sI7
I9
sI8
I9
sI9
I19
sI10
I11
sI11
I13
sI12
I10
sI13
I14
sI14
I28
sI15
I14
sI16
I17
sI17
I15
sI18
I16
sI19
I20
sI20
I22
sI21
I20
sI23
I18
sI24
I26
sI25
I21
sI26
I25
sI27
I25
sI28
I1
ssI3
(dp88
I1
I28
sI2
I1
sI3
I2
sI4
I6
sI5
I4
sI6
I8
sI7
I3
sI8
I7
sI9
I8
sI10
I5
sI11
I10
sI12
I11
sI13
I15
sI14
I13
sI15
I17
sI16
I12
sI17
I16
sI18
I17
sI19
I21
sI20
I19
sI21
I25
sI23
I22
sI24
I23
sI25
I26
sI26
I24
sI27
I26
sI28
I27
sssI23
(dp89
I1
(dp90
I1
I2
sI2
I4
sI3
I1
sI4
I5
sI5
I10
sI6
I5
sI7
I8
sI8
I6
sI9
I7
sI10
I12
sI11
I12
sI12
I16
sI13
I11
sI14
I15
sI15
I13
sI16
I18
sI17
I18
sI18
I23
sI19
I9
sI20
I21
sI21
I19
sI22
I20
sI24
I26
sI25
I21
sI26
I27
sI27
I25
sI28
I14
ssI2
(dp91
I1
I3
sI2
I3
sI3
I7
sI4
I2
sI5
I6
sI6
I4
sI7
I9
sI8
I9
sI9
I19
sI10
I11
sI11
I13
sI12
I10
sI13
I14
sI14
I28
sI15
I14
sI16
I17
sI17
I15
sI18
I16
sI19
I20
sI20
I22
sI21
I20
sI22
I23
sI24
I22
sI25
I27
sI26
I25
sI27
I28
sI28
I1
ssI3
(dp92
I1
I28
sI2
I1
sI3
I2
sI4
I6
sI5
I4
sI6
I8
sI7
I3
sI8
I7
sI9
I8
sI10
I5
sI11
I10
sI12
I11
sI13
I15
sI14
I13
sI15
I17
sI16
I12
sI17
I16
sI18
I17
sI19
I21
sI20
I19
sI21
I25
sI22
I24
sI24
I23
sI25
I26
sI26
I24
sI27
I26
sI28
I27
sssI24
(dp93
I1
(dp94
I1
I2
sI2
I4
sI3
I1
sI4
I5
sI5
I10
sI6
I5
sI7
I8
sI8
I6
sI9
I7
sI10
I12
sI11
I12
sI12
I16
sI13
I11
sI14
I15
sI15
I13
sI16
I18
sI17
I18
sI18
I23
sI19
I9
sI20
I21
sI21
I19
sI22
I23
sI23
I24
sI25
I27
sI26
I27
sI27
I28
sI28
I14
ssI2
(dp95
I1
I3
sI2
I3
sI3
I7
sI4
I2
sI5
I6
sI6
I4
sI7
I9
sI8
I9
sI9
I19
sI10
I11
sI11
I13
sI12
I10
sI13
I14
sI14
I28
sI15
I14
sI16
I17
sI17
I15
sI18
I16
sI19
I20
sI20
I22
sI21
I20
sI22
I24
sI23
I18
sI25
I21
sI26
I25
sI27
I25
sI28
I1
ssI3
(dp96
I1
I28
sI2
I1
sI3
I2
sI4
I6
sI5
I4
sI6
I8
sI7
I3
sI8
I7
sI9
I8
sI10
I5
sI11
I10
sI12
I11
sI13
I15
sI14
I13
sI15
I17
sI16
I12
sI17
I16
sI18
I17
sI19
I21
sI20
I19
sI21
I25
sI22
I20
sI23
I22
sI25
I26
sI26
I24
sI27
I26
sI28
I27
sssI25
(dp97
I1
(dp98
I1
I2
sI2
I4
sI3
I1
sI4
I5
sI5
I10
sI6
I5
sI7
I8
sI8
I6
sI9
I7
sI10
I12
sI11
I12
sI12
I16
sI13
I11
sI14
I15
sI15
I13
sI16
I18
sI17
I18
sI18
I23
sI19
I9
sI20
I21
sI21
I19
sI22
I24
sI23
I24
sI24
I26
sI26
I27
sI27
I25
sI28
I14
ssI2
(dp99
I1
I3
sI2
I3
sI3
I7
sI4
I2
sI5
I6
sI6
I4
sI7
I9
sI8
I9
sI9
I19
sI10
I11
sI11
I13
sI12
I10
sI13
I14
sI14
I28
sI15
I14
sI16
I17
sI17
I15
sI18
I16
sI19
I21
sI20
I19
sI21
I25
sI22
I20
sI23
I22
sI24
I22
sI26
I24
sI27
I28
sI28
I1
ssI3
(dp100
I1
I28
sI2
I1
sI3
I2
sI4
I6
sI5
I4
sI6
I8
sI7
I3
sI8
I7
sI9
I8
sI10
I5
sI11
I10
sI12
I11
sI13
I15
sI14
I13
sI15
I17
sI16
I12
sI17
I16
sI18
I17
sI19
I20
sI20
I22
sI21
I20
sI22
I23
sI23
I18
sI24
I23
sI26
I25
sI27
I26
sI28
I27
sssI26
(dp101
I1
(dp102
I1
I2
sI2
I4
sI3
I1
sI4
I5
sI5
I10
sI6
I5
sI7
I8
sI8
I6
sI9
I7
sI10
I12
sI11
I12
sI12
I16
sI13
I11
sI14
I15
sI15
I13
sI16
I18
sI17
I18
sI18
I23
sI19
I9
sI20
I21
sI21
I19
sI22
I24
sI23
I24
sI24
I26
sI25
I27
sI27
I28
sI28
I14
ssI2
(dp103
I1
I3
sI2
I3
sI3
I7
sI4
I2
sI5
I6
sI6
I4
sI7
I9
sI8
I9
sI9
I19
sI10
I11
sI11
I13
sI12
I10
sI13
I14
sI14
I28
sI15
I14
sI16
I17
sI17
I15
sI18
I16
sI19
I21
sI20
I19
sI21
I25
sI22
I20
sI23
I22
sI24
I22
sI25
I26
sI27
I25
sI28
I1
ssI3
(dp104
I1
I28
sI2
I1
sI3
I2
sI4
I6
sI5
I4
sI6
I8
sI7
I3
sI8
I7
sI9
I8
sI10
I5
sI11
I10
sI12
I11
sI13
I15
sI14
I13
sI15
I17
sI16
I12
sI17
I16
sI18
I17
sI19
I20
sI20
I22
sI21
I20
sI22
I23
sI23
I18
sI24
I23
sI25
I21
sI27
I26
sI28
I27
sssI27
(dp105
I1
(dp106
I1
I2
sI2
I4
sI3
I1
sI4
I5
sI5
I10
sI6
I5
sI7
I8
sI8
I6
sI9
I7
sI10
I12
sI11
I12
sI12
I16
sI13
I11
sI14
I15
sI15
I13
sI16
I18
sI17
I18
sI18
I23
sI19
I9
sI20
I21
sI21
I19
sI22
I24
sI23
I24
sI24
I26
sI25
I21
sI26
I27
sI28
I14
ssI2
(dp107
I1
I3
sI2
I3
sI3
I7
sI4
I2
sI5
I6
sI6
I4
sI7
I9
sI8
I9
sI9
I19
sI10
I11
sI11
I13
sI12
I10
sI13
I14
sI14
I28
sI15
I14
sI16
I17
sI17
I15
sI18
I16
sI19
I21
sI20
I19
sI21
I25
sI22
I20
sI23
I22
sI24
I22
sI25
I27
sI26
I25
sI28
I1
ssI3
(dp108
I1
I28
sI2
I1
sI3
I2
sI4
I6
sI5
I4
sI6
I8
sI7
I3
sI8
I7
sI9
I8
sI10
I5
sI11
I10
sI12
I11
sI13
I15
sI14
I13
sI15
I17
sI16
I12
sI17
I16
sI18
I17
sI19
I20
sI20
I22
sI21
I20
sI22
I23
sI23
I18
sI24
I23
sI25
I26
sI26
I24
sI28
I27
sssI28
(dp109
I1
(dp110
I1
I2
sI2
I4
sI3
I1
sI4
I5
sI5
I10
sI6
I5
sI7
I8
sI8
I6
sI9
I7
sI10
I11
sI11
I13
sI12
I11
sI13
I14
sI14
I28
sI15
I14
sI16
I12
sI17
I18
sI18
I16
sI19
I20
sI20
I22
sI21
I19
sI22
I23
sI23
I18
sI24
I22
sI25
I21
sI26
I27
sI27
I25
ssI2
(dp111
I1
I3
sI2
I3
sI3
I7
sI4
I2
sI5
I6
sI6
I4
sI7
I9
sI8
I9
sI9
I19
sI10
I5
sI11
I12
sI12
I10
sI13
I11
sI14
I15
sI15
I13
sI16
I17
sI17
I15
sI18
I17
sI19
I21
sI20
I21
sI21
I25
sI22
I24
sI23
I24
sI24
I26
sI25
I27
sI26
I25
sI27
I28
ssI3
(dp112
I1
I28
sI2
I1
sI3
I2
sI4
I6
sI5
I4
sI6
I8
sI7
I3
sI8
I7
sI9
I8
sI10
I12
sI11
I10
sI12
I16
sI13
I15
sI14
I13
sI15
I17
sI16
I18
sI17
I16
sI18
I23
sI19
I9
sI20
I19
sI21
I20
sI22
I20
sI23
I22
sI24
I23
sI25
I26
sI26
I24
sI27
I26
sss.