(dp0
I1
(dp1
I1
(dp2
I2
I3
sI3
I1
sI4
I9
sI5
I6
sI6
I3
sI7
I10
sI8
I11
sI9
I14
sI10
I11
sI11
I12
sI12
I13
sI13
I6
sI14
I13
ssI2
(dp3
I2
I4
sI3
I2
sI4
I5
sI5
I7
sI6
I5
sI7
I8
sI8
I1
sI9
I12
sI10
I6
sI11
I10
sI12
I11
sI13
I12
sI14
I11
ssI3
(dp4
I2
I1
sI3
I6
sI4
I2
sI5
I4
sI6
I10
sI7
I5
sI8
I7
sI10
I7
sI11
I8
ssI4
(dp5
I4
I1
sI6
I13
sI9
I4
sI11
I14
sI12
I9
sI13
I14
sI14
I9
sssI2
(dp6
I1
(dp7
I1
I8
sI3
I6
sI4
I2
sI5
I4
sI6
I13
sI7
I10
sI8
I11
sI9
I4
sI10
I6
sI11
I12
sI12
I9
sI13
I14
sI14
I11
ssI2
(dp8
I1
I3
sI3
I2
sI4
I9
sI5
I7
sI6
I10
sI7
I8
sI8
I1
sI9
I14
sI10
I7
sI11
I14
sI12
I13
sI13
I6
sI14
I13
ssI3
(dp9
I1
I2
sI3
I1
sI4
I1
sI5
I6
sI6
I3
sI7
I5
sI8
I7
sI9
I12
sI10
I11
sI11
I8
sI12
I11
sI13
I12
sI14
I9
sssI3
(dp10
I1
(dp11
I1
I2
sI2
I3
sI4
I9
sI5
I7
sI6
I10
sI7
I8
sI8
I1
sI9
I14
sI10
I7
sI11
I8
sI12
I13
sI13
I6
sI14
I13
ssI2
(dp12
I1
I8
sI2
I4
sI4
I5
sI5
I6
sI6
I3
sI7
I10
sI8
I7
sI9
I12
sI10
I6
sI11
I10
sI12
I11
sI13
I12
sI14
I9
ssI3
(dp13
I1
I3
sI2
I1
sI4
I1
sI5
I4
sI6
I13
sI7
I5
sI8
I11
sI9
I4
sI10
I11
sI11
I12
sI12
I9
sI13
I14
sI14
I11
sssI4
(dp14
I1
(dp15
I1
I8
sI2
I3
sI3
I1
sI5
I4
sI6
I10
sI7
I5
sI8
I7
sI9
I14
sI10
I7
sI11
I8
sI12
I11
sI13
I12
sI14
I13
ssI2
(dp16
I1
I3
sI2
I1
sI3
I6
sI5
I6
sI6
I13
sI7
I10
sI8
I11
sI9
I4
sI10
I11
sI11
I12
sI12
I9
sI13
I14
sI14
I11
ssI3
(dp17
I1
I2
sI2
I4
sI3
I2
sI6
I3
sI9
I12
sI11
I14
sI12
I13
sI13
I6
sI14
I9
ssI4
(dp18
I1
I4
sI5
I7
sI6
I5
sI7
I8
sI8
I1
sI10
I6
sI11
I10
sssI5
(dp19
I1
(dp20
I1
I2
sI2
I4
sI3
I1
sI4
I9
sI6
I10
sI7
I5
sI8
I1
sI9
I14
sI10
I7
sI11
I8
sI12
I13
sI13
I6
sI14
I13
ssI2
(dp21
I1
I3
sI2
I3
sI3
I6
sI4
I5
sI6
I13
sI7
I8
sI8
I11
sI9
I4
sI10
I11
sI11
I12
sI12
I9
sI13
I14
sI14
I11
ssI3
(dp22
I1
I8
sI2
I1
sI3
I2
sI4
I1
sI6
I5
sI7
I10
sI8
I7
sI9
I12
sI10
I6
sI11
I10
sI12
I11
sI13
I12
sI14
I9
sssI6
(dp23
I1
(dp24
I1
I2
sI2
I4
sI3
I2
sI4
I9
sI5
I7
sI7
I8
sI8
I1
sI9
I14
sI10
I7
sI11
I12
sI12
I13
sI13
I6
sI14
I13
ssI2
(dp25
I1
I4
sI2
I3
sI3
I1
sI4
I5
sI5
I6
sI7
I5
sI8
I7
sI9
I12
sI10
I11
sI11
I8
sI12
I11
sI13
I14
sI14
I11
ssI3
(dp26
I1
I8
sI2
I1
sI4
I2
sI5
I4
sI7
I10
sI8
I11
sI10
I6
sI11
I10
ssI4
(dp27
I1
I3
sI3
I6
sI4
I1
sI9
I4
sI11
I14
sI12
I9
sI13
I12
sI14
I9
sssI7
(dp28
I1
(dp29
I1
I2
sI2
I4
sI3
I1
sI4
I5
sI5
I7
sI6
I3
sI8
I1
sI9
I4
sI10
I6
sI11
I12
sI12
I9
sI13
I12
sI14
I9
ssI2
(dp30
I1
I3
sI2
I3
sI3
I6
sI4
I9
sI5
I6
sI6
I10
sI8
I11
sI9
I14
sI10
I7
sI11
I14
sI12
I13
sI13
I6
sI14
I13
ssI3
(dp31
I1
I8
sI2
I1
sI3
I2
sI4
I1
sI5
I4
sI6
I13
sI8
I7
sI9
I12
sI10
I11
sI11
I8
sI12
I11
sI13
I14
sI14
I11
sssI8
(dp32
I1
(dp33
I1
I3
sI2
I3
sI3
I6
sI4
I1
sI5
I7
sI6
I10
sI7
I8
sI9
I4
sI10
I7
sI11
I12
sI12
I9
sI13
I12
sI14
I13
ssI2
(dp34
I1
I4
sI2
I4
sI3
I1
sI4
I9
sI5
I6
sI6
I13
sI7
I5
sI9
I14
sI10
I11
sI11
I8
sI12
I11
sI13
I14
sI14
I11
ssI3
(dp35
I1
I8
sI2
I1
sI3
I2
sI4
I2
sI5
I4
sI6
I3
sI7
I10
sI9
I12
sI10
I6
sI11
I14
sI12
I13
sI13
I6
sI14
I9
sssI9
(dp36
I1
(dp37
I1
I2
sI2
I4
sI3
I1
sI4
I9
sI5
I6
sI6
I3
sI7
I10
sI8
I7
sI10
I6
sI11
I8
sI12
I13
sI13
I6
sI14
I13
ssI2
(dp38
I1
I3
sI2
I3
sI3
I6
sI4
I5
sI5
I7
sI6
I13
sI7
I8
sI8
I1
sI10
I11
sI11
I12
sI12
I9
sI13
I14
sI14
I11
ssI3
(dp39
I1
I8
sI2
I1
sI3
I2
sI4
I1
sI5
I4
sI6
I10
sI7
I5
sI8
I11
sI10
I7
sI11
I14
sI12
I11
sI13
I12
sI14
I9
sssI10
(dp40
I1
(dp41
I1
I2
sI2
I4
sI3
I1
sI4
I9
sI5
I6
sI6
I13
sI7
I5
sI8
I11
sI9
I14
sI11
I10
sI12
I11
sI13
I14
sI14
I11
ssI2
(dp42
I1
I3
sI2
I3
sI3
I6
sI4
I5
sI5
I7
sI6
I10
sI7
I8
sI8
I1
sI9
I4
sI11
I8
sI12
I9
sI13
I12
sI14
I9
ssI3
(dp43
I1
I8
sI2
I1
sI3
I2
sI4
I1
sI5
I4
sI6
I3
sI7
I10
sI8
I7
sI9
I12
sI11
I12
sI12
I13
sI13
I6
sI14
I13
sssI11
(dp44
I1
(dp45
I1
I2
sI2
I4
sI3
I2
sI4
I5
sI5
I6
sI6
I10
sI7
I10
sI8
I1
sI9
I4
sI10
I11
sI12
I9
sI13
I6
sI14
I9
ssI2
(dp46
I1
I4
sI2
I3
sI3
I1
sI4
I9
sI5
I4
sI6
I3
sI7
I5
sI8
I7
sI9
I14
sI10
I6
sI12
I11
sI13
I12
sI14
I13
ssI3
(dp47
I1
I3
sI2
I1
sI3
I6
sI4
I2
sI6
I13
sI9
I12
sI12
I13
sI13
I14
sI14
I11
ssI4
(dp48
I1
I8
sI4
I1
sI5
I7
sI6
I5
sI7
I8
sI8
I11
sI10
I7
sssI12
(dp49
I1
(dp50
I1
I2
sI2
I4
sI3
I1
sI4
I9
sI5
I6
sI6
I3
sI7
I10
sI8
I7
sI9
I14
sI10
I6
sI11
I8
sI13
I12
sI14
I13
ssI2
(dp51
I1
I3
sI2
I3
sI3
I6
sI4
I5
sI5
I7
sI6
I13
sI7
I8
sI8
I1
sI9
I4
sI10
I11
sI11
I12
sI13
I14
sI14
I11
ssI3
(dp52
I1
I8
sI2
I1
sI3
I2
sI4
I1
sI5
I4
sI6
I10
sI7
I5
sI8
I11
sI9
I12
sI10
I7
sI11
I14
sI13
I6
sI14
I9
sssI13
(dp53
I1
(dp54
I1
I2
sI2
I4
sI3
I1
sI4
I9
sI5
I6
sI6
I3
sI7
I10
sI8
I7
sI9
I12
sI10
I6
sI11
I12
sI12
I13
sI14
I9
ssI2
(dp55
I1
I3
sI2
I3
sI3
I6
sI4
I5
sI5
I7
sI6
I13
sI7
I8
sI8
I1
sI9
I4
sI10
I11
sI11
I8
sI12
I9
sI14
I11
ssI3
(dp56
I1
I8
sI2
I1
sI3
I2
sI4
I1
sI5
I4
sI6
I10
sI7
I5
sI8
I11
sI9
I14
sI10
I7
sI11
I14
sI12
I11
sI14
I13
sssI14
(dp57
I1
(dp58
I1
I2
sI2
I4
sI3
I1
sI4
I9
sI5
I6
sI6
I3
sI7
I10
sI8
I7
sI9
I14
sI10
I6
sI11
I12
sI12
I9
sI13
I12
ssI2
(dp59
I1
I3
sI2
I3
sI3
I6
sI4
I5
sI5
I7
sI6
I13
sI7
I8
sI8
I1
sI9
I4
sI10
I11
sI11
I8
sI12
I11
sI13
I14
ssI3
(dp60
I1
I8
sI2
I1
sI3
I2
sI4
I1
sI5
I4
sI6
I10
sI7
I5
sI8
I11
sI9
I12
sI10
I7
sI11
I14
sI12
I13
sI13
I6
sss.