(dp0
I1
(dp1
I1
(dp2
I2
I1
sI3
I16
sI4
I14
sI5
I2
sI6
I10
sI7
I2
sI8
I5
sI9
I7
sI10
I9
sI11
I10
sI12
I14
sI14
I5
sI15
I24
sI16
I9
sI17
I4
sI18
I4
sI19
I4
sI20
I4
sI21
I4
sI22
I4
sI23
I4
sI24
I4
sI25
I5
sI26
I5
sI27
I5
sI28
I5
sI29
I5
ssI2
(dp3
I2
I5
sI3
I4
sI4
I1
sI5
I3
sI6
I25
sI7
I5
sI8
I6
sI9
I16
sI10
I6
sI11
I25
sI12
I15
sI13
I12
sI14
I4
sI15
I4
sI16
I3
sI17
I13
sI18
I5
sI19
I5
sI20
I5
sI21
I5
sI22
I5
sI23
I5
sI24
I5
sI25
I9
sI26
I6
sI27
I6
sI28
I6
sI29
I6
ssI3
(dp4
I2
I7
sI3
I5
sI4
I17
sI5
I1
sI6
I3
sI7
I6
sI9
I11
sI10
I11
sI11
I5
sI12
I13
sI13
I17
sI14
I12
sI15
I5
sI16
I5
sI17
I5
sI25
I11
sI26
I9
sI27
I9
sI29
I9
ssI4
(dp5
I3
I6
sI4
I6
sI5
I8
sI6
I1
sI7
I9
sI8
I9
sI9
I25
sI11
I6
sI12
I5
sI16
I6
sI25
I6
ssI5
(dp6
I3
I1
sI4
I3
sI5
I24
sI6
I4
sI9
I10
sI10
I5
sI11
I9
sI12
I4
sI15
I12
sI24
I15
sssI2
(dp7
I1
(dp8
I1
I5
sI3
I16
sI4
I14
sI5
I7
sI6
I25
sI7
I2
sI8
I9
sI9
I7
sI10
I11
sI11
I25
sI12
I14
sI14
I5
sI15
I24
sI16
I9
sI17
I4
sI18
I4
sI19
I4
sI20
I4
sI21
I4
sI22
I4
sI23
I4
sI24
I4
sI25
I9
sI26
I5
sI27
I5
sI28
I5
sI29
I5
ssI2
(dp9
I1
I4
sI3
I5
sI4
I17
sI5
I2
sI6
I1
sI7
I5
sI8
I5
sI9
I10
sI10
I5
sI11
I5
sI12
I13
sI13
I17
sI14
I4
sI15
I5
sI16
I5
sI17
I5
sI18
I5
sI19
I5
sI20
I5
sI21
I5
sI22
I5
sI23
I5
sI24
I5
sI25
I5
sI26
I6
sI27
I6
sI28
I6
sI29
I6
ssI3
(dp10
I1
I2
sI3
I4
sI4
I1
sI5
I1
sI6
I10
sI7
I9
sI8
I6
sI9
I16
sI10
I9
sI11
I6
sI12
I15
sI13
I12
sI14
I12
sI15
I4
sI16
I3
sI17
I13
sI24
I15
sI25
I6
sI26
I9
sI27
I9
sI29
I9
sssI3
(dp11
I1
(dp12
I1
I2
sI2
I5
sI4
I14
sI5
I3
sI6
I10
sI7
I2
sI8
I5
sI9
I7
sI10
I9
sI11
I10
sI12
I14
sI14
I5
sI15
I24
sI16
I5
sI17
I4
sI18
I4
sI19
I4
sI20
I4
sI21
I4
sI22
I4
sI23
I4
sI24
I4
sI25
I5
sI26
I5
sI27
I5
sI28
I5
sI29
I5
ssI2
(dp13
I1
I5
sI2
I7
sI4
I6
sI5
I2
sI6
I25
sI7
I9
sI8
I6
sI9
I16
sI10
I6
sI11
I25
sI12
I15
sI14
I4
sI15
I4
sI16
I3
sI18
I5
sI19
I5
sI20
I5
sI21
I5
sI22
I5
sI23
I5
sI24
I5
sI25
I9
sI26
I6
sI27
I6
sI28
I6
sI29
I6
ssI3
(dp14
I1
I4
sI2
I1
sI4
I3
sI5
I8
sI6
I1
sI7
I5
sI8
I9
sI9
I25
sI10
I11
sI11
I6
sI12
I13
sI13
I17
sI14
I12
sI15
I5
sI16
I6
sI17
I5
sI25
I6
sI26
I9
sI27
I9
sI29
I9
ssI4
(dp15
I1
I6
sI4
I17
sI5
I1
sI6
I3
sI7
I6
sI9
I11
sI11
I5
sI12
I5
sI13
I12
sI16
I9
sI17
I13
sI25
I11
ssI5
(dp16
I1
I3
sI4
I1
sI5
I24
sI6
I4
sI9
I10
sI10
I5
sI11
I9
sI12
I4
sI15
I12
sI24
I15
sssI4
(dp17
I1
(dp18
I1
I3
sI2
I5
sI3
I4
sI5
I3
sI6
I3
sI7
I6
sI8
I9
sI9
I25
sI10
I6
sI11
I6
sI12
I14
sI13
I12
sI14
I5
sI15
I5
sI16
I6
sI17
I13
sI18
I5
sI19
I5
sI20
I5
sI21
I5
sI22
I5
sI23
I5
sI24
I5
sI25
I6
sI26
I9
sI27
I5
sI28
I6
sI29
I9
ssI2
(dp19
I1
I2
sI2
I7
sI3
I1
sI5
I2
sI6
I4
sI7
I9
sI8
I6
sI9
I8
sI10
I9
sI11
I10
sI12
I13
sI13
I17
sI14
I12
sI15
I12
sI17
I5
sI24
I15
sI25
I5
ssI3
(dp20
I1
I4
sI2
I1
sI3
I6
sI5
I1
sI6
I10
sI7
I2
sI9
I7
sI10
I11
sI11
I25
sI12
I5
sI25
I9
ssI4
(dp21
I1
I6
sI3
I5
sI5
I24
sI6
I25
sI9
I16
sI11
I9
sI12
I15
sI15
I24
sI16
I3
sI24
I4
sI25
I11
ssI5
(dp22
I3
I16
sI5
I12
sI6
I11
sI9
I11
sI11
I5
sI12
I4
sI16
I9
ssI6
(dp23
I5
I15
sI6
I27
sI9
I10
sI10
I5
sI15
I4
sI27
I9
ssI7
(dp24
I9
I5
sI6
I9
sI5
I14
sI14
I4
ssI8
(dp25
I1
I5
sI5
I17
sI6
I1
sI9
I26
sI17
I4
sI26
I6
ssI9
(dp26
I5
I18
sI6
I7
sI7
I5
sI9
I27
sI18
I4
sI27
I6
ssI10
(dp27
I5
I19
sI6
I16
sI9
I29
sI16
I5
sI19
I4
sI29
I6
ssI11
(dp28
I8
I5
sI9
I6
sI20
I4
sI5
I20
sI6
I8
ssI12
(dp29
I26
I5
sI5
I21
sI6
I26
sI21
I4
ssI13
(dp30
I6
I29
sI5
I22
sI22
I4
sI29
I5
ssI14
(dp31
I28
I5
sI5
I23
sI6
I28
sI23
I4
ssI15
(dp32
I5
I4
sI6
I5
sssI5
(dp33
I1
(dp34
I1
I2
sI2
I5
sI3
I4
sI4
I1
sI6
I10
sI7
I2
sI8
I9
sI9
I7
sI10
I9
sI11
I10
sI12
I15
sI14
I4
sI15
I24
sI16
I6
sI17
I4
sI18
I4
sI19
I4
sI20
I4
sI21
I4
sI22
I4
sI23
I4
sI24
I4
sI25
I5
sI26
I9
sI27
I5
sI28
I6
sI29
I9
ssI2
(dp35
I1
I3
sI2
I1
sI3
I5
sI4
I3
sI6
I25
sI7
I6
sI9
I16
sI10
I6
sI11
I25
sI12
I4
sI13
I12
sI14
I12
sI15
I4
sI16
I3
sI17
I13
sI24
I15
sI25
I9
ssI3
(dp36
I1
I6
sI2
I7
sI3
I6
sI4
I6
sI6
I11
sI7
I9
sI9
I11
sI10
I11
sI11
I5
sI25
I11
ssI4
(dp37
I1
I4
sI3
I1
sI4
I14
sI6
I3
sI9
I25
sI11
I6
sI12
I14
sI14
I5
sI15
I12
sI25
I6
ssI5
(dp38
I3
I16
sI4
I17
sI6
I4
sI8
I6
sI9
I8
sI11
I9
sI12
I13
sI13
I17
sI16
I9
sI17
I5
ssI6
(dp39
I4
I12
sI6
I27
sI9
I10
sI10
I5
sI12
I5
sI27
I9
ssI7
(dp40
I9
I5
sI4
I15
sI6
I9
sI15
I5
ssI8
(dp41
I1
I5
sI4
I24
sI6
I1
sI9
I26
sI24
I5
sI26
I6
ssI9
(dp42
I4
I18
sI6
I7
sI7
I5
sI9
I27
sI18
I5
sI27
I6
ssI10
(dp43
I4
I19
sI6
I16
sI9
I29
sI16
I5
sI19
I5
sI29
I6
ssI11
(dp44
I8
I5
sI9
I6
sI4
I20
sI6
I8
sI20
I5
ssI12
(dp45
I26
I5
sI4
I21
sI21
I5
sI6
I26
ssI13
(dp46
I4
I22
sI6
I29
sI22
I5
sI29
I5
ssI14
(dp47
I4
I23
sI28
I5
sI6
I28
sI23
I5
ssI15
(dp48
I4
I5
sI6
I5
sssI6
(dp49
I1
(dp50
I1
I3
sI3
I16
sI4
I14
sI5
I3
sI7
I5
sI8
I5
sI9
I25
sI10
I9
sI11
I10
sI12
I14
sI14
I5
sI15
I24
sI16
I9
sI17
I4
sI18
I4
sI19
I4
sI20
I4
sI21
I4
sI22
I4
sI23
I4
sI24
I4
sI25
I6
sI26
I5
sI27
I5
sI28
I5
sI29
I5
ssI2
(dp51
I1
I4
sI2
I7
sI3
I1
sI4
I17
sI5
I2
sI7
I9
sI8
I6
sI9
I8
sI10
I11
sI11
I25
sI12
I13
sI13
I17
sI14
I4
sI15
I12
sI16
I5
sI17
I5
sI25
I9
sI27
I9
sI29
I9
ssI3
(dp52
I1
I2
sI2
I5
sI3
I4
sI4
I12
sI5
I8
sI8
I9
sI9
I26
sI11
I9
sI12
I5
sI13
I12
sI14
I12
sI17
I13
sI25
I5
sI26
I6
ssI4
(dp53
I4
I15
sI5
I26
sI9
I27
sI15
I5
sI26
I9
sI27
I6
ssI5
(dp54
I24
I5
sI9
I29
sI4
I24
sI5
I29
sI29
I6
ssI6
(dp55
I9
I6
sI18
I5
sI4
I18
sI5
I9
ssI7
(dp56
I1
I5
sI2
I1
sI4
I19
sI5
I11
sI7
I2
sI9
I7
sI11
I6
sI19
I5
sI25
I11
ssI8
(dp57
I3
I5
sI4
I20
sI5
I7
sI7
I6
sI9
I16
sI16
I3
sI20
I5
ssI9
(dp58
I4
I21
sI5
I10
sI9
I11
sI10
I6
sI11
I5
sI21
I5
ssI10
(dp59
I4
I22
sI5
I16
sI9
I10
sI10
I5
sI16
I6
sI22
I5
ssI11
(dp60
I9
I5
sI4
I23
sI5
I28
sI28
I6
sI23
I5
ssI12
(dp61
I4
I5
sI5
I6
ssI13
(dp62
I1
I6
sI4
I1
sI5
I1
ssI14
(dp63
I3
I6
sI4
I3
sI5
I24
sI12
I15
sI15
I4
sI24
I15
ssI15
(dp64
I4
I6
sI12
I4
sI5
I12
sssI7
(dp65
I1
(dp66
I1
I2
sI2
I5
sI3
I5
sI4
I6
sI5
I8
sI6
I25
sI8
I9
sI9
I7
sI10
I11
sI11
I25
sI12
I15
sI14
I4
sI15
I24
sI16
I5
sI17
I4
sI18
I4
sI19
I4
sI20
I4
sI21
I4
sI22
I4
sI23
I4
sI24
I4
sI25
I9
sI26
I5
sI27
I5
sI28
I5
sI29
I5
ssI2
(dp67
I1
I6
sI2
I1
sI3
I16
sI4
I1
sI5
I1
sI6
I7
sI8
I5
sI9
I25
sI10
I6
sI11
I5
sI12
I4
sI13
I12
sI14
I12
sI15
I4
sI16
I9
sI17
I13
sI18
I5
sI19
I5
sI20
I5
sI21
I5
sI22
I5
sI23
I5
sI24
I5
sI25
I6
sI26
I6
sI27
I6
sI28
I6
sI29
I6
ssI3
(dp68
I1
I5
sI2
I7
sI3
I4
sI4
I14
sI5
I2
sI6
I10
sI8
I6
sI9
I16
sI10
I9
sI11
I6
sI12
I14
sI14
I5
sI15
I5
sI16
I3
sI24
I15
sI25
I5
sI26
I9
sI27
I9
sI29
I9
ssI4
(dp69
I1
I4
sI3
I6
sI4
I17
sI5
I7
sI6
I1
sI9
I10
sI10
I5
sI11
I9
sI12
I13
sI13
I17
sI15
I12
sI16
I6
sI17
I5
sI25
I11
sssI8
(dp70
I1
(dp71
I1
I2
sI2
I7
sI3
I16
sI4
I1
sI5
I7
sI6
I25
sI7
I9
sI9
I8
sI10
I11
sI11
I25
sI12
I15
sI13
I17
sI14
I4
sI15
I24
sI16
I9
sI17
I4
sI18
I4
sI19
I4
sI20
I4
sI21
I4
sI22
I4
sI23
I4
sI24
I4
sI25
I9
sI26
I5
sI27
I5
sI28
I5
sI29
I5
ssI2
(dp72
I1
I5
sI2
I5
sI3
I4
sI4
I6
sI5
I26
sI6
I8
sI7
I2
sI9
I25
sI10
I5
sI11
I5
sI12
I4
sI14
I12
sI15
I4
sI16
I5
sI17
I5
sI18
I5
sI19
I5
sI20
I5
sI21
I5
sI22
I5
sI23
I5
sI24
I5
sI25
I6
sI26
I9
sI27
I6
sI28
I6
sI29
I6
ssI3
(dp73
I1
I4
sI2
I1
sI3
I6
sI4
I14
sI5
I8
sI6
I1
sI7
I5
sI9
I16
sI10
I6
sI11
I6
sI12
I14
sI13
I12
sI14
I5
sI15
I5
sI16
I3
sI17
I13
sI24
I15
sI25
I5
sI26
I6
sI27
I9
sI29
I9
sssI9
(dp74
I1
(dp75
I1
I6
sI2
I1
sI3
I1
sI4
I1
sI5
I11
sI6
I10
sI7
I2
sI8
I6
sI10
I9
sI11
I10
sI12
I15
sI14
I4
sI15
I24
sI16
I3
sI17
I4
sI18
I4
sI19
I4
sI20
I4
sI21
I4
sI22
I4
sI23
I4
sI24
I4
sI25
I5
sI26
I5
sI27
I5
sI28
I5
sI29
I5
ssI2
(dp76
I1
I2
sI2
I7
sI3
I6
sI4
I3
sI5
I2
sI6
I25
sI7
I6
sI10
I5
sI11
I25
sI12
I4
sI13
I12
sI14
I12
sI15
I4
sI17
I13
sI21
I5
sI22
I5
sI23
I5
sI24
I15
sI25
I9
sI26
I6
sI27
I6
sI28
I6
sI29
I6
ssI3
(dp77
I2
I5
sI3
I4
sI4
I14
sI5
I10
sI6
I11
sI10
I6
sI11
I9
sI12
I14
sI14
I5
sI15
I12
sI25
I6
ssI4
(dp78
I3
I5
sI4
I17
sI5
I16
sI6
I27
sI10
I11
sI11
I5
sI12
I13
sI13
I17
sI16
I6
sI17
I5
sI25
I11
sI27
I9
ssI5
(dp79
I1
I3
sI3
I16
sI4
I12
sI5
I3
sI6
I3
sI11
I6
sI12
I5
sI16
I9
ssI6
(dp80
I15
I5
sI4
I15
sI5
I7
sI6
I4
sI7
I9
ssI7
(dp81
I1
I5
sI4
I24
sI5
I8
sI6
I1
sI8
I9
sI24
I5
ssI8
(dp82
I4
I18
sI5
I26
sI6
I7
sI7
I5
sI18
I5
sI26
I9
ssI9
(dp83
I4
I19
sI5
I29
sI6
I16
sI16
I5
sI19
I5
sI29
I9
ssI10
(dp84
I8
I5
sI20
I5
sI4
I20
sI5
I9
sI6
I8
ssI11
(dp85
I1
I4
sI4
I6
sI5
I1
sI6
I9
sssI10
(dp86
I1
(dp87
I1
I6
sI2
I7
sI3
I16
sI4
I1
sI5
I2
sI6
I25
sI7
I9
sI8
I5
sI9
I10
sI11
I25
sI12
I15
sI14
I4
sI15
I24
sI16
I9
sI17
I4
sI18
I4
sI19
I4
sI20
I4
sI21
I4
sI22
I4
sI23
I4
sI24
I4
sI25
I9
sI26
I5
sI27
I5
sI28
I5
sI29
I5
ssI2
(dp88
I1
I2
sI2
I5
sI3
I4
sI4
I14
sI5
I7
sI6
I11
sI7
I6
sI8
I6
sI9
I16
sI11
I10
sI12
I14
sI13
I12
sI14
I5
sI15
I4
sI16
I3
sI17
I13
sI18
I5
sI19
I5
sI20
I5
sI21
I5
sI22
I5
sI23
I5
sI24
I5
sI25
I5
sI26
I6
sI27
I6
sI28
I6
sI29
I6
ssI3
(dp89
I1
I4
sI3
I5
sI4
I17
sI5
I8
sI6
I10
sI7
I5
sI8
I9
sI9
I25
sI11
I6
sI12
I13
sI13
I17
sI14
I12
sI15
I5
sI16
I5
sI17
I5
sI24
I15
sI25
I6
sI26
I9
sI27
I9
sI29
I9
ssI4
(dp90
I1
I5
sI2
I1
sI3
I6
sI4
I12
sI5
I10
sI6
I7
sI7
I2
sI9
I11
sI11
I5
sI12
I5
sI15
I12
sI16
I6
sI25
I11
sssI11
(dp91
I1
(dp92
I1
I2
sI2
I7
sI3
I4
sI4
I6
sI5
I2
sI6
I10
sI7
I9
sI8
I5
sI9
I25
sI10
I11
sI12
I15
sI14
I4
sI15
I24
sI16
I3
sI17
I4
sI18
I4
sI19
I4
sI20
I4
sI21
I4
sI22
I4
sI23
I4
sI24
I4
sI25
I6
sI26
I5
sI27
I5
sI28
I5
sI29
I5
ssI2
(dp93
I1
I6
sI2
I5
sI3
I5
sI4
I14
sI5
I8
sI6
I25
sI7
I5
sI8
I6
sI9
I8
sI10
I5
sI12
I14
sI13
I12
sI14
I5
sI15
I4
sI16
I5
sI17
I13
sI18
I5
sI19
I5
sI20
I5
sI21
I5
sI22
I5
sI23
I5
sI24
I5
sI25
I11
sI26
I9
sI27
I6
sI28
I6
sI29
I6
ssI3
(dp94
I1
I3
sI3
I16
sI4
I1
sI5
I26
sI6
I11
sI7
I6
sI8
I9
sI9
I26
sI10
I6
sI12
I4
sI14
I12
sI15
I5
sI16
I9
sI24
I15
sI25
I5
sI26
I6
ssI4
(dp95
I1
I4
sI3
I6
sI4
I17
sI5
I29
sI6
I27
sI9
I11
sI10
I9
sI12
I13
sI13
I17
sI15
I12
sI16
I6
sI17
I5
sI25
I9
sI27
I9
sI29
I9
ssI5
(dp96
I1
I5
sI2
I1
sI3
I1
sI4
I12
sI5
I11
sI6
I1
sI7
I2
sI9
I7
sI12
I5
sssI12
(dp97
I1
(dp98
I1
I6
sI2
I5
sI3
I4
sI4
I15
sI5
I24
sI6
I10
sI7
I5
sI8
I5
sI9
I16
sI10
I9
sI11
I10
sI13
I17
sI14
I4
sI15
I12
sI16
I3
sI17
I4
sI18
I4
sI19
I4
sI20
I4
sI21
I4
sI22
I4
sI23
I4
sI24
I15
sI25
I5
sI26
I5
sI27
I5
sI28
I5
sI29
I5
ssI2
(dp99
I1
I3
sI3
I16
sI4
I1
sI5
I12
sI6
I25
sI7
I6
sI8
I9
sI9
I11
sI10
I5
sI11
I5
sI14
I5
sI15
I24
sI16
I9
sI17
I5
sI18
I5
sI19
I5
sI20
I5
sI21
I5
sI22
I5
sI23
I5
sI24
I4
sI25
I11
sI26
I6
sI27
I6
sI28
I6
sI29
I6
ssI3
(dp100
I1
I2
sI2
I7
sI3
I5
sI4
I14
sI5
I2
sI6
I4
sI7
I9
sI9
I25
sI10
I6
sI11
I6
sI14
I12
sI15
I5
sI16
I5
sI24
I5
sI25
I6
sI26
I9
sI27
I9
sI29
I9
ssI4
(dp101
I1
I5
sI2
I1
sI3
I6
sI4
I17
sI5
I15
sI6
I11
sI7
I2
sI9
I7
sI10
I11
sI11
I25
sI13
I12
sI15
I4
sI16
I6
sI17
I13
sI25
I9
ssI5
(dp102
I1
I4
sI3
I1
sI4
I12
sI5
I8
sI6
I1
sI8
I6
sI9
I8
sI11
I9
sssI13
(dp103
I1
(dp104
I1
I5
sI2
I7
sI3
I16
sI4
I14
sI5
I24
sI6
I25
sI7
I5
sI8
I9
sI9
I10
sI10
I5
sI11
I10
sI12
I13
sI14
I12
sI15
I12
sI16
I9
sI17
I4
sI18
I4
sI19
I4
sI20
I4
sI21
I4
sI22
I4
sI23
I4
sI24
I15
sI25
I11
sI26
I5
sI27
I5
sI28
I5
sI29
I5
ssI2
(dp105
I1
I4
sI2
I5
sI3
I5
sI4
I17
sI5
I7
sI6
I4
sI7
I9
sI8
I5
sI9
I25
sI10
I6
sI11
I5
sI12
I15
sI14
I4
sI15
I24
sI16
I3
sI17
I13
sI18
I5
sI19
I5
sI20
I5
sI21
I5
sI22
I5
sI23
I5
sI24
I4
sI25
I6
sI26
I6
sI27
I6
sI28
I6
sI29
I6
sssI14
(dp106
I1
(dp107
I1
I5
sI2
I7
sI3
I4
sI4
I14
sI5
I7
sI6
I4
sI7
I9
sI8
I9
sI9
I25
sI10
I5
sI11
I5
sI12
I15
sI15
I24
sI16
I3
sI17
I4
sI18
I4
sI19
I4
sI20
I4
sI21
I4
sI22
I4
sI23
I4
sI24
I4
sI25
I6
sI26
I5
sI27
I5
sI28
I5
sI29
I5
ssI2
(dp108
I1
I2
sI2
I5
sI3
I16
sI4
I1
sI5
I24
sI6
I1
sI7
I2
sI8
I5
sI9
I26
sI10
I6
sI11
I6
sI12
I14
sI13
I12
sI15
I12
sI16
I9
sI17
I13
sI18
I5
sI19
I5
sI20
I5
sI21
I5
sI22
I5
sI23
I5
sI24
I15
sI25
I5
sI26
I6
sI27
I6
sI28
I6
sI29
I6
ssI3
(dp109
I1
I4
sI2
I1
sI3
I6
sI4
I17
sI5
I14
sI6
I25
sI7
I5
sI8
I6
sI9
I7
sI10
I11
sI11
I25
sI12
I13
sI13
I17
sI15
I4
sI16
I5
sI17
I5
sI24
I5
sI25
I9
sI26
I9
sI27
I9
sI29
I9
sssI15
(dp110
I1
(dp111
I1
I6
sI2
I1
sI3
I16
sI4
I1
sI5
I24
sI6
I25
sI7
I5
sI8
I5
sI9
I7
sI10
I11
sI11
I25
sI12
I4
sI14
I4
sI16
I9
sI17
I4
sI18
I4
sI19
I4
sI20
I4
sI21
I4
sI22
I4
sI23
I4
sI24
I15
sI25
I9
sI26
I5
sI27
I5
sI28
I5
sI29
I5
ssI2
(dp112
I1
I2
sI2
I5
sI3
I4
sI4
I14
sI5
I15
sI6
I7
sI7
I2
sI8
I6
sI9
I16
sI10
I6
sI11
I5
sI12
I14
sI14
I5
sI16
I3
sI18
I5
sI19
I5
sI20
I5
sI21
I5
sI22
I5
sI23
I5
sI24
I4
sI25
I5
sI26
I6
sI27
I6
sI28
I6
sI29
I6
ssI3
(dp113
I1
I5
sI2
I7
sI3
I5
sI4
I17
sI5
I2
sI6
I4
sI7
I9
sI8
I9
sI9
I25
sI10
I9
sI11
I6
sI12
I15
sI13
I12
sI14
I12
sI16
I5
sI17
I13
sI24
I5
sI25
I6
sI26
I9
sI27
I9
sI29
I9
ssI4
(dp114
I1
I4
sI3
I6
sI4
I15
sI5
I7
sI6
I1
sI7
I6
sI9
I10
sI10
I5
sI11
I9
sI12
I13
sI13
I17
sI16
I6
sI17
I5
sI25
I11
sssI16
(dp115
I1
(dp116
I1
I2
sI2
I7
sI3
I4
sI4
I6
sI5
I2
sI6
I25
sI7
I9
sI8
I5
sI9
I16
sI10
I11
sI11
I25
sI12
I15
sI14
I4
sI15
I24
sI17
I4
sI18
I4
sI19
I4
sI20
I4
sI21
I4
sI22
I4
sI23
I4
sI24
I4
sI25
I9
sI26
I5
sI27
I5
sI28
I5
sI29
I5
ssI2
(dp117
I1
I4
sI2
I5
sI3
I5
sI4
I14
sI5
I7
sI6
I16
sI7
I6
sI8
I6
sI9
I10
sI10
I5
sI11
I5
sI12
I14
sI13
I12
sI14
I5
sI15
I4
sI17
I13
sI18
I5
sI19
I5
sI20
I5
sI21
I5
sI22
I5
sI23
I5
sI24
I5
sI25
I5
sI26
I6
sI27
I6
sI28
I6
sI29
I6
ssI3
(dp118
I1
I6
sI3
I16
sI4
I17
sI5
I8
sI6
I3
sI7
I5
sI8
I9
sI9
I25
sI10
I6
sI11
I6
sI12
I13
sI13
I17
sI14
I12
sI15
I5
sI17
I5
sI24
I15
sI25
I6
sI26
I9
sI27
I9
sI29
I9
ssI4
(dp119
I1
I5
sI2
I1
sI3
I6
sI4
I1
sI5
I16
sI6
I10
sI7
I2
sI9
I7
sI10
I9
sI11
I9
sI12
I4
sI15
I12
sI25
I11
sssI17
(dp120
I1
(dp121
I1
I5
sI2
I7
sI3
I4
sI4
I17
sI5
I7
sI6
I4
sI7
I9
sI8
I9
sI9
I25
sI10
I5
sI11
I5
sI12
I15
sI13
I12
sI14
I4
sI15
I24
sI16
I3
sI18
I4
sI19
I4
sI20
I4
sI21
I4
sI22
I4
sI23
I4
sI24
I4
sI25
I6
sI26
I5
sI27
I5
sI28
I5
sI29
I5
ssI2
(dp122
I1
I2
sI2
I5
sI3
I16
sI4
I1
sI5
I24
sI6
I1
sI7
I2
sI8
I5
sI9
I26
sI10
I6
sI11
I6
sI12
I13
sI13
I17
sI14
I12
sI15
I12
sI16
I9
sI18
I5
sI19
I5
sI20
I5
sI21
I5
sI22
I5
sI23
I5
sI24
I15
sI25
I5
sI26
I6
sI27
I6
sI28
I6
sI29
I6
ssI3
(dp123
I1
I4
sI2
I1
sI3
I6
sI4
I14
sI5
I17
sI6
I25
sI7
I5
sI8
I6
sI9
I7
sI10
I11
sI11
I25
sI12
I14
sI14
I5
sI15
I4
sI16
I5
sI24
I5
sI25
I9
sI26
I9
sI27
I9
sI29
I9
sssI18
(dp124
I1
(dp125
I1
I5
sI2
I7
sI3
I16
sI4
I17
sI5
I18
sI6
I25
sI7
I5
sI8
I9
sI9
I10
sI10
I5
sI11
I10
sI12
I13
sI13
I17
sI14
I4
sI15
I24
sI16
I9
sI17
I5
sI19
I4
sI20
I4
sI21
I4
sI22
I4
sI23
I4
sI24
I4
sI25
I11
sI26
I5
sI27
I5
sI28
I5
sI29
I5
ssI2
(dp126
I1
I4
sI2
I5
sI3
I5
sI4
I18
sI5
I7
sI6
I4
sI7
I9
sI8
I5
sI9
I25
sI10
I6
sI11
I5
sI12
I15
sI13
I12
sI14
I5
sI15
I4
sI16
I3
sI17
I4
sI19
I5
sI20
I5
sI21
I5
sI22
I5
sI23
I5
sI24
I5
sI25
I6
sI26
I6
sI27
I6
sI28
I6
sI29
I6
sssI19
(dp127
I1
(dp128
I1
I4
sI2
I7
sI3
I16
sI4
I19
sI5
I7
sI6
I4
sI7
I9
sI8
I9
sI9
I25
sI10
I5
sI11
I5
sI12
I15
sI13
I17
sI14
I4
sI15
I24
sI16
I9
sI17
I5
sI18
I4
sI20
I4
sI21
I4
sI22
I4
sI23
I4
sI24
I4
sI25
I6
sI26
I5
sI27
I5
sI28
I5
sI29
I5
ssI2
(dp129
I1
I5
sI2
I5
sI3
I4
sI4
I1
sI5
I19
sI6
I1
sI7
I2
sI8
I5
sI9
I16
sI10
I6
sI11
I6
sI12
I4
sI13
I12
sI14
I5
sI15
I4
sI16
I3
sI17
I4
sI18
I5
sI20
I5
sI21
I5
sI22
I5
sI23
I5
sI24
I5
sI25
I5
sI26
I6
sI27
I6
sI28
I6
sI29
I6
sssI20
(dp130
I1
(dp131
I1
I4
sI2
I7
sI3
I16
sI4
I20
sI5
I7
sI6
I4
sI7
I9
sI8
I9
sI9
I25
sI10
I5
sI11
I5
sI12
I15
sI13
I17
sI14
I4
sI15
I24
sI16
I9
sI17
I5
sI18
I4
sI19
I4
sI21
I4
sI22
I4
sI23
I4
sI24
I4
sI25
I6
sI26
I5
sI27
I5
sI28
I5
sI29
I5
ssI2
(dp132
I1
I5
sI2
I5
sI3
I4
sI4
I1
sI5
I20
sI6
I1
sI7
I2
sI8
I5
sI9
I16
sI10
I6
sI11
I6
sI12
I4
sI13
I12
sI14
I5
sI15
I4
sI16
I3
sI17
I4
sI18
I5
sI19
I5
sI21
I5
sI22
I5
sI23
I5
sI24
I5
sI25
I5
sI26
I6
sI27
I6
sI28
I6
sI29
I6
sssI21
(dp133
I1
(dp134
I1
I4
sI2
I7
sI3
I16
sI4
I21
sI5
I7
sI6
I4
sI7
I9
sI8
I9
sI9
I25
sI10
I5
sI11
I5
sI12
I15
sI13
I17
sI14
I4
sI15
I24
sI16
I9
sI17
I5
sI18
I4
sI19
I4
sI20
I4
sI22
I4
sI23
I4
sI24
I4
sI25
I6
sI26
I5
sI27
I5
sI28
I5
sI29
I5
ssI2
(dp135
I1
I5
sI2
I5
sI3
I4
sI4
I1
sI5
I21
sI6
I1
sI7
I2
sI8
I5
sI9
I16
sI10
I6
sI11
I6
sI12
I4
sI13
I12
sI14
I5
sI15
I4
sI16
I3
sI17
I4
sI18
I5
sI19
I5
sI20
I5
sI22
I5
sI23
I5
sI24
I5
sI25
I5
sI26
I6
sI27
I6
sI28
I6
sI29
I6
sssI22
(dp136
I1
(dp137
I1
I4
sI2
I7
sI3
I16
sI4
I22
sI5
I7
sI6
I4
sI7
I9
sI8
I9
sI9
I25
sI10
I5
sI11
I5
sI12
I15
sI13
I17
sI14
I4
sI15
I24
sI16
I9
sI17
I5
sI18
I4
sI19
I4
sI20
I4
sI21
I4
sI23
I4
sI24
I4
sI25
I6
sI26
I5
sI27
I5
sI28
I5
sI29
I5
ssI2
(dp138
I1
I5
sI2
I5
sI3
I4
sI4
I1
sI5
I22
sI6
I1
sI7
I2
sI8
I5
sI9
I16
sI10
I6
sI11
I6
sI12
I4
sI13
I12
sI14
I5
sI15
I4
sI16
I3
sI17
I4
sI18
I5
sI19
I5
sI20
I5
sI21
I5
sI23
I5
sI24
I5
sI25
I5
sI26
I6
sI27
I6
sI28
I6
sI29
I6
sssI23
(dp139
I1
(dp140
I1
I5
sI2
I7
sI3
I16
sI4
I17
sI5
I23
sI6
I25
sI7
I5
sI8
I9
sI9
I10
sI10
I5
sI11
I10
sI12
I13
sI13
I17
sI14
I4
sI15
I24
sI16
I9
sI17
I5
sI18
I4
sI19
I4
sI20
I4
sI21
I4
sI22
I4
sI24
I4
sI25
I11
sI26
I5
sI27
I5
sI28
I5
sI29
I5
ssI2
(dp141
I1
I4
sI2
I5
sI3
I5
sI4
I23
sI5
I7
sI6
I4
sI7
I9
sI8
I5
sI9
I25
sI10
I6
sI11
I5
sI12
I15
sI13
I12
sI14
I5
sI15
I4
sI16
I3
sI17
I4
sI18
I5
sI19
I5
sI20
I5
sI21
I5
sI22
I5
sI24
I5
sI25
I6
sI26
I6
sI27
I6
sI28
I6
sI29
I6
sssI24
(dp142
I1
(dp143
I1
I5
sI2
I7
sI3
I16
sI4
I14
sI5
I24
sI6
I25
sI7
I5
sI8
I9
sI9
I10
sI10
I5
sI11
I10
sI12
I14
sI13
I17
sI14
I5
sI15
I4
sI16
I9
sI17
I4
sI18
I4
sI19
I4
sI20
I4
sI21
I4
sI22
I4
sI23
I4
sI25
I11
sI26
I5
sI27
I5
sI28
I5
sI29
I5
ssI2
(dp144
I1
I6
sI2
I5
sI3
I4
sI4
I17
sI5
I1
sI6
I10
sI7
I2
sI8
I5
sI9
I16
sI10
I11
sI11
I25
sI12
I15
sI13
I12
sI14
I4
sI15
I24
sI16
I3
sI17
I13
sI18
I5
sI19
I5
sI20
I5
sI21
I5
sI22
I5
sI23
I5
sI25
I9
sI26
I6
sI27
I6
sI28
I6
sI29
I6
ssI3
(dp145
I1
I4
sI2
I1
sI3
I6
sI4
I24
sI5
I7
sI6
I1
sI7
I9
sI8
I6
sI9
I25
sI10
I6
sI11
I5
sI12
I4
sI14
I12
sI15
I5
sI16
I5
sI17
I5
sI25
I6
sI26
I9
sI27
I9
sI29
I9
sssI25
(dp146
I1
(dp147
I1
I2
sI2
I7
sI3
I16
sI4
I1
sI5
I2
sI6
I11
sI7
I9
sI8
I5
sI9
I25
sI10
I9
sI11
I10
sI12
I15
sI14
I4
sI15
I24
sI16
I6
sI17
I4
sI18
I4
sI19
I4
sI20
I4
sI21
I4
sI22
I4
sI23
I4
sI24
I4
sI26
I5
sI27
I5
sI28
I5
sI29
I5
ssI2
(dp148
I1
I5
sI2
I5
sI3
I4
sI4
I6
sI5
I7
sI6
I10
sI7
I6
sI8
I9
sI9
I10
sI10
I11
sI11
I25
sI12
I4
sI13
I12
sI14
I12
sI15
I4
sI16
I3
sI17
I13
sI18
I5
sI19
I5
sI20
I5
sI21
I5
sI22
I5
sI23
I5
sI24
I5
sI26
I6
sI27
I6
sI28
I6
sI29
I6
ssI3
(dp149
I1
I6
sI3
I5
sI4
I14
sI5
I8
sI6
I25
sI7
I5
sI8
I6
sI9
I8
sI10
I5
sI11
I6
sI12
I14
sI14
I5
sI15
I5
sI16
I5
sI24
I15
sI26
I9
sI27
I9
sI29
I9
ssI4
(dp150
I1
I4
sI2
I1
sI3
I6
sI4
I17
sI5
I25
sI6
I7
sI7
I2
sI9
I11
sI10
I6
sI11
I5
sI12
I13
sI13
I17
sI15
I12
sI16
I9
sI17
I5
sssI26
(dp151
I1
(dp152
I1
I2
sI2
I7
sI3
I16
sI4
I1
sI5
I7
sI6
I25
sI7
I9
sI8
I9
sI9
I26
sI10
I11
sI11
I25
sI12
I15
sI13
I17
sI14
I4
sI15
I24
sI16
I9
sI17
I4
sI18
I4
sI19
I4
sI20
I4
sI21
I4
sI22
I4
sI23
I4
sI24
I4
sI25
I9
sI27
I5
sI28
I5
sI29
I5
ssI2
(dp153
I1
I5
sI2
I5
sI3
I4
sI4
I6
sI5
I8
sI6
I26
sI7
I2
sI8
I6
sI9
I16
sI10
I6
sI11
I5
sI12
I4
sI14
I12
sI15
I4
sI16
I3
sI17
I5
sI18
I5
sI19
I5
sI20
I5
sI21
I5
sI22
I5
sI23
I5
sI24
I5
sI25
I5
sI27
I6
sI28
I6
sI29
I6
ssI3
(dp154
I1
I4
sI2
I1
sI3
I6
sI4
I14
sI5
I26
sI6
I1
sI7
I5
sI8
I5
sI9
I10
sI10
I5
sI11
I6
sI12
I14
sI13
I12
sI14
I5
sI15
I5
sI16
I5
sI17
I13
sI24
I15
sI25
I6
sI27
I9
sI29
I9
sssI27
(dp155
I1
(dp156
I1
I5
sI2
I5
sI3
I4
sI4
I6
sI5
I7
sI6
I25
sI7
I9
sI8
I9
sI9
I27
sI10
I11
sI11
I25
sI12
I15
sI13
I17
sI14
I4
sI15
I24
sI16
I3
sI17
I4
sI18
I4
sI19
I4
sI20
I4
sI21
I4
sI22
I4
sI23
I4
sI24
I4
sI25
I9
sI26
I5
sI28
I5
sI29
I5
ssI2
(dp157
I1
I2
sI2
I7
sI3
I16
sI4
I1
sI5
I1
sI6
I27
sI7
I6
sI8
I5
sI9
I10
sI10
I5
sI11
I5
sI12
I4
sI14
I12
sI15
I4
sI16
I6
sI17
I5
sI18
I5
sI19
I5
sI20
I5
sI21
I5
sI22
I5
sI23
I5
sI24
I5
sI25
I5
sI26
I6
sI28
I6
sI29
I6
ssI3
(dp158
I1
I4
sI2
I1
sI3
I6
sI4
I14
sI5
I27
sI6
I10
sI7
I5
sI8
I6
sI9
I7
sI10
I9
sI11
I6
sI12
I14
sI13
I12
sI14
I5
sI15
I5
sI16
I5
sI17
I13
sI24
I15
sI25
I6
sI26
I9
sI29
I9
sssI28
(dp159
I1
(dp160
I1
I5
sI2
I7
sI3
I16
sI4
I6
sI5
I7
sI6
I28
sI7
I9
sI8
I9
sI9
I25
sI10
I5
sI11
I5
sI12
I15
sI13
I12
sI14
I4
sI15
I24
sI16
I9
sI17
I4
sI18
I4
sI19
I4
sI20
I4
sI21
I4
sI22
I4
sI23
I4
sI24
I4
sI25
I6
sI26
I5
sI27
I5
sI29
I5
ssI2
(dp161
I1
I4
sI2
I5
sI3
I5
sI4
I17
sI5
I28
sI6
I1
sI7
I2
sI8
I5
sI9
I16
sI10
I6
sI11
I6
sI12
I13
sI13
I17
sI14
I5
sI15
I4
sI16
I3
sI17
I5
sI18
I5
sI19
I5
sI20
I5
sI21
I5
sI22
I5
sI23
I5
sI24
I5
sI25
I5
sI26
I6
sI27
I6
sI29
I6
sssI29
(dp162
I1
(dp163
I1
I2
sI2
I7
sI3
I16
sI4
I1
sI5
I7
sI6
I25
sI7
I9
sI8
I9
sI9
I29
sI10
I11
sI11
I25
sI12
I15
sI13
I17
sI14
I4
sI15
I24
sI16
I9
sI17
I4
sI18
I4
sI19
I4
sI20
I4
sI21
I4
sI22
I4
sI23
I4
sI24
I4
sI25
I9
sI26
I5
sI27
I5
sI28
I5
ssI2
(dp164
I1
I4
sI2
I5
sI3
I5
sI4
I6
sI5
I8
sI6
I29
sI7
I2
sI8
I6
sI9
I16
sI10
I6
sI11
I5
sI12
I4
sI14
I12
sI15
I4
sI16
I3
sI17
I5
sI18
I5
sI19
I5
sI20
I5
sI21
I5
sI22
I5
sI23
I5
sI24
I5
sI25
I5
sI26
I6
sI27
I6
sI28
I6
ssI3
(dp165
I1
I5
sI2
I1
sI3
I4
sI4
I14
sI5
I29
sI6
I1
sI7
I5
sI8
I5
sI9
I10
sI10
I5
sI11
I6
sI12
I14
sI13
I12
sI14
I5
sI15
I5
sI16
I5
sI17
I13
sI24
I15
sI25
I6
sI26
I9
sI27
I9
sss.